(dp1
S'output'
p2
S''
sS'layer'
p3
S'/home/shrenik/web2py/applications/vlab/views/default/index.html'
p4
sS'code'
p5
S'response.write(\'\\n\', escape=False)\nresponse.write(\'<!doctype html>\\n<html lang="en" class="no-js">\\n<head>\\n  <meta charset="utf-8">\\n\\n  <!-- www.phpied.com/conditional-comments-block-downloads/ -->\\n  <!--[if IE]><![endif]-->\\n\\n  <!-- Always force latest IE rendering engine (even in intranet) & Chrome Frame \\n       Remove this if you use the .htaccess -->\\n  <meta http-equiv="X-UA-Compatible" content="IE=edge,chrome=1">\\n\\n  <title>Locality Analysis of Programs using Cachegrind Tool </title>\\n  <meta name="description" content="">\\n  <meta name="author" content="">\\n\\n  <!--  Mobile Viewport Fix\\n        j.mp/mobileviewport & davidbcalhoun.com/2010/viewport-metatag \\n  device-width : Occupy full width of the screen in its current orientation\\n  initial-scale = 1.0 retains dimensions instead of zooming out if page height > device height\\n  maximum-scale = 1.0 retains dimensions instead of zooming in if page width < device width\\n  -->\\n  <meta name="viewport" content="width=device-width; initial-scale=1.0; maximum-scale=1.0;">\\n\\n\\n  <!-- Place favicon.ico and apple-touch-icon.png in the root of your domain and delete these references -->\\n  <link rel="shortcut icon" href="\', escape=False)\nresponse.write(URL(request.application,\'static\',\'images.jpeg\'))\nresponse.write(\'">\\n  <link rel="apple-touch-icon" href="\', escape=False)\nresponse.write(URL(request.application,\'static\',\'apple-touch-icon.png\'))\nresponse.write(\'">\\n\\n\\n  <!-- CSS : implied media="all" -->\\n  <link rel="stylesheet" href="\', escape=False)\nresponse.write(URL(request.application,\'static\',\'css/default.css?v=1\'))\nresponse.write(\'">\\n  \\n\\n  <!-- For the less-enabled mobile browsers like Opera Mini -->\\n  <link rel="stylesheet" media="handheld" href="\', escape=False)\nresponse.write(URL(request.application,\'static\',\'css/handheld.css?v=1\'))\nresponse.write(\'">\\n\\n  <!-- ********************************** CHANGE /OVERRIDE STYLESHEETS HERE ********************************** -->\\n  <!-- MAIN STYLE SHEET : style.css -->\\n  <link rel="stylesheet" href="\', escape=False)\nresponse.write(URL(request.application,\'static\',\'css/style.css?v=1\'))\nresponse.write(\'">\\n  <link rel="stylesheet" href="\', escape=False)\nresponse.write(URL(request.application,\'static\',\'css/override.css?v=1\'))\nresponse.write(\'">\\n  <!-- ******************************************************************************************************* -->\\t\\n \\n  <!-- All JavaScript at the bottom, except for Modernizr which enables HTML5 elements & feature detects -->\\n  <script src="\', escape=False)\nresponse.write(URL(request.application,\'static\',\'js/modernizr-1.5.min.js\'))\nresponse.write(\'"></script>\\n\\n</head>\\n\\n<!-- paulirish.com/2008/conditional-stylesheets-vs-css-hacks-answer-neither/ -->\\n\\n<!--[if lt IE 7 ]> <body class="ie6"> <![endif]-->\\n<!--[if IE 7 ]>    <body class="ie7"> <![endif]-->\\n<!--[if IE 8 ]>    <body class="ie8"> <![endif]-->\\n<!--[if IE 9 ]>    <body class="ie9"> <![endif]-->\\n<!--[if (gt IE 9)|!(IE)]><!--> <body> <!--<![endif]-->\\n  <div id="container">\\n\\t<header id="site_head">\\n\\t\\t<div class="header_cont"> <!-- 960px header-->\\n\\t\\t\\t<!-- LOGO of the company-->\\n\\t\\t\\t<div id="logo">\\n\\t\\t\\t<h1 id="labname"> <a href="\', escape=False)\nresponse.write(URL(request.application,\'default\',\'index\'))\nresponse.write(\'">COMPUTER SYSTEMS ORGANISATION LAB</a> </h1>\\n\\n\\t\\t\\t</div>\\n\\n\\t\\t\\t<div id="help-menu">\\n\\t\\t\\t<h1> <a href="\', escape=False)\nresponse.write(URL(request.application,\'static\',\'help/index.html\'))\nresponse.write(\'"> Help </a> </h1>\\n\\t\\t\\t</div>\\n\\t\\t</div>\\n\\t\\t\\t<!-- Menu -->\\n\\n\\t</header>\\n\\n\\t<article id="main_content"> <!--960px limit -->\\n\\t\\t<header id="main-title">\\n\\t\\t\\t<h1>Locality Analysis of Programs using Cachegrind Tool</h1>\\n\\t\\t</header>\\n\\t\\t<nav id="head-nav">\\n\\t\\t<ul>\\n\\t\\t\\t\', escape=False)\nif auth.user:\n    response.write(\'\\n\\t\\t\\t<li><a href="\', escape=False)\n    response.write(URL(request.application,\'default\',\'index\'))\n    response.write(\'">Simulation</a></li>\\n\\t\\t\\t<li><a href="\', escape=False)\n    response.write(URL(request.application,\'default\',\'user/logout\'))\n    response.write(\'">LogOut</a></li>\\n\\t\\t\\t\', escape=False)\nelse:\n    response.write(\'\\n\\t\\t\\t<li><a href="\', escape=False)\n    response.write(URL(request.application,\'default\',\'user/register\'))\n    response.write(\'">Register</a></li>\\n\\t\\t\\t<li><a href="\', escape=False)\n    response.write(URL(request.application,\'default\',\'user/login\'))\n    response.write(\'">LogIn</a></li>\\n\\t\\t\\t\', escape=False)\n    pass\nresponse.write(\'\\n\\t\\t</ul>\\n\\t\\t</nav>\\n\\t\\t<section id="hidden-content">\\n\\t\\t</section>\\t\\t\\n\\t\\t<section id="left-content">\\n\\t\\t\\t\\n\', escape=False)\nresponse.write(\'\\n<html>\\n<head>\\n\\t<script type="text/javascript">\\n\\t\\tfunction startTime()\\n\\t\\t{\\n\\t\\tvar today=new Date();\\n\\t\\tvar h=today.getHours();\\n\\t\\tvar m=today.getMinutes();\\n\\t\\tvar s=today.getSeconds();\\n\\t\\t// add a zero in front of numbers<10\\n\\t\\tm=checkTime(m);\\n\\t\\ts=checkTime(s);\\n\\t\\tdocument.getElementById(\\\'txt\\\').innerHTML=h+":"+m+":"+s;\\n\\t\\tt=setTimeout(\\\'startTime()\\\',500);\\n\\t\\t}\\n\\n\\t\\tfunction checkTime(i)\\n\\t\\t{\\n\\t\\tif (i<10)\\n\\t\\t  {\\n\\t\\t    i="0" + i;\\n\\t\\t      }\\n\\t\\t      return i;\\n\\t\\t      }\\n\\t      </script>\\n\\t      <script type="text/javascript" src="\', escape=False)\nresponse.write(URL(request.application,\'static\',\'jquery.js\')\nresponse.write(\'"></script>\\n\\t      <script type="text/javascript">\\n\\t\\t      $(document).ready(function(){\\n\\t\\t\\t\\t      $("#p1,#p2,#p3,#p4").hide();\\n\\t\\t\\t      $("#t1").focusin(function(){\\n\\t\\t\\t\\t      $(this).css("background-color","#e8edff");\\n\\t\\t\\t\\t      });\\n\\t\\t\\t      \\n\\t\\t\\t      $("#t1").focusout(function(){\\n\\t\\t\\t\\t      $(this).css("background","url(\', escape=False)\nresponse.write(URL(request.application,\'static\',\'images/bck.jpg\'))\nresponse.write(\')");\\n\\t\\t\\t\\t      });\\n\\t\\t\\t      $("#l1").click(function(){\\n\\t\\t\\t\\t      $(".level2").hide();\\n\\t\\t\\t\\t      $(".level1").show();\\n\\t\\t\\t\\t      });\\n\\t\\t\\t     \\n\\t\\t\\t      $("#l2").click(function(){\\n\\t\\t\\t\\t      $(".level1").hide();\\n\\t\\t\\t\\t      $(".level2").show();\\n\\t\\t\\t\\t      });\\n\\t\\t\\t      $("#both").click(function(){\\n\\t\\t\\t\\t      $(".level1").show();\\n\\t\\t\\t\\t      $(".level2").show();\\n\\t\\t\\t\\t      });\\n\\t\\t\\t      $("#hid1").mouseover(function(){\\n\\t\\t\\t\\t\\t      $("#p1").slideDown("fast");\\n\\t\\t\\t\\t\\t      });\\n\\t\\t\\t      $("#hid2").mouseover(function(){\\n\\t\\t\\t\\t\\t      $("#p2").slideDown("fast");\\n\\t\\t\\t\\t\\t      });\\n\\t\\t\\t      $("#hid3").mouseover(function(){\\n\\t\\t\\t\\t\\t      $("#p3").slideDown("fast");\\n\\t\\t\\t\\t\\t      });\\n\\t\\t\\t      $("#hid4").mouseover(function(){\\n\\t\\t\\t\\t\\t      $("#p4").slideDown("fast");\\n\\t\\t\\t\\t\\t      });\\n\\t\\t\\t      $("#hid1,#hid2,#hid3,#hid4").mouseout(function(){\\n\\t\\t\\t\\t\\t      $("#p1,#p2,#p3,#p4").slideUp("fast");\\n\\t\\t\\t\\t\\t      });\\n\\t\\t\\t      $("[id$=\\\'_i1\\\']").mouseover(function(){\\n\\t\\t\\t\\t\\t      $("[id$=\\\'_i1\\\']").css("background-color","#007f7f");\\n\\t\\t\\t\\t\\t      $("[id$=\\\'_i1\\\']").css("color","#FFFFFF");\\n\\t\\t\\t\\t\\t      });\\n\\t\\t\\t      $("[id$=\\\'_i1\\\']").mouseout(function(){\\n\\t\\t\\t\\t\\t      $("[id$=\\\'_i1\\\']").css("background-color","#e8edff");\\n\\t\\t\\t\\t\\t      $("[id$=\\\'_i1\\\']").css("color","#669");\\n\\t\\t\\t\\t\\t      });\\n\\t\\t\\t      $("[id$=\\\'_l2i\\\']").mouseover(function(){\\n\\t\\t\\t\\t\\t      $("[id$=\\\'_l2i\\\']").css("background-color","#007f7f");\\n\\t\\t\\t\\t\\t      $("[id$=\\\'_l2i\\\']").css("color","#FFFFFF");\\n\\t\\t\\t\\t\\t      });\\n\\t\\t\\t      $("[id$=\\\'_l2i\\\']").mouseout(function(){\\n\\t\\t\\t\\t\\t      $("[id$=\\\'_l2i\\\']").css("background-color","#e8edff");\\n\\t\\t\\t\\t\\t      $("[id$=\\\'_l2i\\\']").css("color","#669");\\n\\t\\t\\t\\t\\t      });\\n\\t\\t\\t      $("[id$=\\\'_d1\\\']").mouseover(function(){\\n\\t\\t\\t\\t\\t      $("[id$=\\\'_d1\\\']").css("background-color","#007f7f");\\n\\t\\t\\t\\t\\t      $("[id$=\\\'_d1\\\']").css("color","#FFFFFF");\\n\\t\\t\\t\\t\\t      });\\n\\t\\t\\t      $("[id$=\\\'_d1\\\']").mouseout(function(){\\n\\t\\t\\t\\t\\t      $("[id$=\\\'_d1\\\']").css("background-color","#e8edff");\\n\\t\\t\\t\\t\\t      $("[id$=\\\'_d1\\\']").css("color","#669");\\n\\t\\t\\t\\t\\t      });\\n\\t\\t\\t      $("[id$=\\\'_l2d\\\']").mouseover(function(){\\n\\t\\t\\t\\t\\t      $("[id$=\\\'_l2d\\\']").css("background-color","#007f7f");\\n\\t\\t\\t\\t\\t      $("[id$=\\\'_l2d\\\']").css("color","#FFFFFF");\\n\\t\\t\\t\\t\\t      });\\n\\t\\t\\t      $("[id$=\\\'_l2d\\\']").mouseout(function(){\\n\\t\\t\\t\\t\\t      $("[id$=\\\'_l2d\\\']").css("background-color","#e8edff");\\n\\t\\t\\t\\t\\t      $("[id$=\\\'_l2d\\\']").css("color","#669");\\n\\t\\t\\t\\t\\t      });\\n\\t\\t\\t      $(".d1_rd").mouseover(function(){\\n\\t\\t\\t\\t\\t      $(".d1_rd").css("background-color","#007f7f");\\n\\t\\t\\t\\t\\t      $(".d1_rd").css("color","#FFFFFF");\\n\\t\\t\\t\\t\\t      });\\n\\t\\t\\t      $(".d1_rd").mouseout(function(){\\n\\t\\t\\t\\t\\t      $(".d1_rd").css("background-color","#e8edff");\\n\\t\\t\\t\\t\\t      $(".d1_rd").css("color","#669");\\n\\t\\t\\t\\t\\t      });\\n\\t\\t\\t      $(".d1_wr").mouseover(function(){\\n\\t\\t\\t\\t\\t      $(".d1_wr").css("background-color","#007f7f");\\n\\t\\t\\t\\t\\t      $(".d1_wr").css("color","#FFFFFF");\\n\\t\\t\\t\\t\\t      });\\n\\t\\t\\t      $(".d1_wr").mouseout(function(){\\n\\t\\t\\t\\t\\t      $(".d1_wr").css("background-color","#e8edff");\\n\\t\\t\\t\\t\\t      $(".d1_wr").css("color","#669");\\n\\t\\t\\t\\t\\t      });\\n\\t\\t\\t      $(".l2d_rd").mouseover(function(){\\n\\t\\t\\t\\t\\t      $(".l2d_rd").css("background-color","#007f7f");\\n\\t\\t\\t\\t\\t      $(".l2d_rd").css("color","#FFFFFF");\\n\\t\\t\\t\\t\\t      });\\n\\t\\t\\t      $(".l2d_rd").mouseout(function(){\\n\\t\\t\\t\\t\\t      $(".l2d_rd").css("background-color","#e8edff");\\n\\t\\t\\t\\t\\t      $(".l2d_rd").css("color","#669");\\n\\t\\t\\t\\t\\t      });\\n\\t\\t\\t      $(".l2d_wr").mouseover(function(){\\n\\t\\t\\t\\t\\t      $(".l2d_wr").css("background-color","#007f7f");\\n\\t\\t\\t\\t\\t      $(".l2d_wr").css("color","#FFFFFF");\\n\\t\\t\\t\\t\\t      });\\n\\t\\t\\t      $(".l2d_wr").mouseout(function(){\\n\\t\\t\\t\\t\\t      $(".l2d_wr").css("background-color","#e8edff");\\n\\t\\t\\t\\t\\t      $(".l2d_wr").css("color","#669");\\n\\t\\t\\t\\t\\t      });\\n\\t\\t\\t      $("#hid1,#hid2,#hid3,#hid4").mouseover(function(){\\n\\t\\t\\t\\t\\t      $(this).css("background-color","#007f7f");\\n\\t\\t\\t\\t\\t      });\\n\\t\\t\\t      $("#hid1,#hid2,#hid3,#hid4").mouseout(function(){\\n\\t\\t\\t\\t\\t      $(this).css("background","#f6f6ee url(../images/bck.jpg)");\\n\\t\\t\\t\\t\\t      });\\n\\t\\t\\t\\t      });\\n\\t\\t\\t      </script>\\n<style type="text/css">\\np.panel\\n{\\n\\t\\tmargin:0px;\\n\\t\\tpadding:5px;\\n\\t\\ttext-align:center;\\n\\t\\tbackground:#e8edff;\\n\\t\\tborder:solid 1px #c3c3c3;\\n\\t\\theight:30px;\\n\\t\\twidth:500px;\\n\\t\\tdisplay:none;\\n\\t\\tposition: fixed;\\n}\\n#hor-zebra\\n{\\n\\tfont-family: "Lucida Sans Unicode", "Lucida Grande", Sans-Serif;\\n\\tfont-size: 12px;\\n\\tmargin: 45px;\\n\\twidth: 480px;\\n\\ttext-align: left;\\n\\tborder-collapse: collapse;\\n}\\n#hor-zebra th\\n{\\n\\tfont-size: 14px;\\n\\tfont-weight: normal;\\n\\tpadding: 10px 8px;\\n\\tcolor: #039;\\n}\\n#hor-zebra td\\n{\\n\\tpadding: 8px;\\n\\tcolor: #669;\\n}\\n#hor-zebra .odd\\n{\\n\\tbackground: #e8edff; \\n}\\n#hor-zebra tr:\\n{\\n\\tcolor: white;\\n\\tbackground: #007f7f;\\n}\\n.hidden\\n{\\n\\tdisplay:none\\n}\\n</style>\\n</head>\\n<body onload="startTime()"> \\n\\n<p class="panel" id="p1" > The level and type of cache, I1:- (Level - 1 Type- Instruction) </p>\\n<p class="panel" id="p2">The size of the cache in Kb, 2kb, 4kb ... </p>\\n<p class="panel" id="p3"> reserves multiple cache sectors for each potential address set </p>\\n<p class="panel" id="p4"> No of lines in the bus, 32, 64 ... </p>\\n<h4 id="txt" align="right"></h4><br/>\\n\', escape=False)\nresponse.write(form.custom.begin)\nresponse.write(\'\\n<div id="t1">\\n<table style="width:50%">\\n\\t<tr>\\n\\t\\t<td>\\n\\t\\t\\t\', escape=False)\nresponse.write(form.custom.label.file)\nresponse.write(\'\\n\\t\\t</td>\\n\\t\\t<td>\\n\\t\\t\\t\', escape=False)\nresponse.write(form.custom.widget.file)\nresponse.write(\'\\n\\t\\t</td>\\n\\t</tr>\\n\\t<tr>\\n\\t\\t<td>\\n\\t\\t\\t\', escape=False)\nresponse.write(form.custom.label.input_file)\nresponse.write(\'\\n\\t\\t</td>\\n\\t\\t<td>\\n\\t\\t\\t\', escape=False)\nresponse.write(form.custom.widget.input_file)\nresponse.write(\'\\n\\t\\t</td>\\n\\t</tr>\\n</table>\\n \\n<table style="width:50%">\\n\\t<tr>\\n\\t\\t<th class="hl" id="hid1">\\n\\t\\t\\tType\\n\\t\\t</th>\\n\\t\\t<th class="hl" id="hid2">\\n\\t\\t\\tSize \\n\\t\\t</th>\\n\\t\\t<th class="hl" id="hid3">\\n\\t\\t\\tAssociativity \\n\\t\\t</th>\\n\\t\\t<th class="hl" id="hid4">\\n\\t\\t\\tLine Size\\t\\n\\t\\t</th>\\n\\t</tr>\\n\\t<tr>\\n\\t\\t<td>\\n\\t<tr>\\n\\t\\t<td>\\n\\t\\t\\tI1\\n\\t\\t</td>\\n\\t\\t<td>\\n\\t\\t\\t\', escape=False)\nresponse.write(form.custom.widget.i1_size)\nresponse.write(\'\\n\\t\\t</td>\\n\\t\\t<td>\\n\\t\\t\\t\', escape=False)\nresponse.write(form.custom.widget.i1_associativity)\nresponse.write(\'\\n\\t\\t</td>\\n\\t\\t<td>\\n\\t\\t\\t\', escape=False)\nresponse.write(form.custom.widget.i1_line_size)\nresponse.write(\'\\n\\t\\t</td>\\n\\t</tr>\\n\\t<tr>\\n\\t\\t<td>\\n\\t\\t\\tD1\\n\\t\\t</td>\\n\\t\\t<td>\\n\\t\\t\\t\', escape=False)\nresponse.write(form.custom.widget.d1_size)\nresponse.write(\'\\n\\t\\t</td>\\n\\t\\t<td>\\n\\t\\t\\t\', escape=False)\nresponse.write(form.custom.widget.d1_associativity)\nresponse.write(\'\\n\\t\\t</td>\\n\\t\\t<td>\\n\\t\\t\\t\', escape=False)\nresponse.write(form.custom.widget.d1_line_size)\nresponse.write(\'\\n\\t\\t</td>\\n\\t</tr>\\n\\t<tr>\\n\\t\\t<td>\\n\\t\\t\\tL2\\n\\t\\t</td>\\n\\t\\t<td>\\n\\t\\t\\t\', escape=False)\nresponse.write(form.custom.widget.l2_size)\nresponse.write(\'\\n\\t\\t</td>\\n\\t\\t<td>\\n\\t\\t\\t\', escape=False)\nresponse.write(form.custom.widget.l2_associativity)\nresponse.write(\'\\n\\t\\t</td>\\n\\t\\t<td>\\n\\t\\t\\t\', escape=False)\nresponse.write(form.custom.widget.l2_line_size)\nresponse.write(\'\\n\\t\\t</td>\\n\\t</tr>\\n</table>\\n</div>\\n\', escape=False)\nresponse.write(form.custom.submit)\nresponse.write(\'\\n\', escape=False)\nresponse.write(form.custom.end)\nresponse.write(\'\\n\', escape=False)\nif len(list) > 0:\n    response.write(\'\\n<p><span id="l1" style="text-align:left"><b> LEVEL 1</b></span>  <span id="l2" style="text-align:center"><b> LEVEL 2</b></span> <span id="both" style="text-align:right"> <b> COMBINED </b></span></p>\\n<table style="width:100%" border="1" id="hor-zebra">\\n\\t<tr>\\n\\t\\t<th colspan="5" style="text-align:center"> INSTRUCTION </th>\\n\\t\\t<th colspan="9" style="text-align:center"> DATA </th>\\n\\t</tr>\\n\\t<tr>\\n\\t\\t<th rowspan="2"> Level </th> <th rowspan="2"> References </th> <th rowspan="2"> Hits </th> <th rowspan="2" > Misses </th> <th rowspan="2"> Miss rate </th>\\n\\t\\t<th rowspan="2"> Level </th> <th colspan="2"> References </th> <th colspan="2"> Hits </th> <th colspan="2"> Misses </th> <th colspan="2"> Miss rate </th>\\n\\t</tr>\\n\\t<tr>\\n\\t\\t<th>rd</th><th>wr</th><th>rd</th><th>wr</th><th>rd</th><th>wr</th><th>rd</th><th>wr</th>\\n\\t</tr>\\n\\n\\t<tr class="level1">\\n\\t\\t<th rowspan="2"> I1 </th> <td rowspan="2" class="odd" id="1_i1"> \', escape=False)\n    response.write(list[0][2])\n    response.write(\' </td> <td rowspan="2" class="odd" id="2_i1"> \', escape=False)\n    response.write(int(list[0][2].replace(",",""))-int(list[1][2].replace(",","")))\n    response.write(\' </td> <td rowspan="2" class="odd" id="3_i1"> \', escape=False)\n    response.write(list[1][2])\n    response.write(\' </td> <td rowspan="2" class="odd" id="4_i1"> \', escape=False)\n    response.write(list[3][2])\n    response.write(\' </td>\\n\\n\\t\\t<th rowspan="2"> D1 </th> <td colspan="2" style="text-align:center" class="odd" id="1_d1">\', escape=False)\n    response.write(values["a"])\n    response.write(\' </td> <td colspan="2" style="text-align:center" class="odd" id="2_d1">\', escape=False)\n    response.write(values["b"])\n    response.write(\' </td> <td colspan="2" style="text-align:center" class="odd" id="3_d1">\', escape=False)\n    response.write(values["c"])\n    response.write(\' </td> <td colspan="2" style="text-align:center" class="odd" id="4_d1">\', escape=False)\n    response.write(values["d"])\n    response.write(\' </td>\\n\\t</tr>\\n\\t<tr class="level1">\\n\\t\\t<td class="d1_rd">\', escape=False)\n    response.write(values["a_1"])\n    response.write(\' </td><td class="d1_wr">\', escape=False)\n    response.write(values["a_2"])\n    response.write(\' </td><td class="d1_rd">\', escape=False)\n    response.write(values["b_1"])\n    response.write(\' </td><td class="d1_wr">\', escape=False)\n    response.write(values["b_2"])\n    response.write(\' </td><td class="d1_rd">\', escape=False)\n    response.write(values["c_1"])\n    response.write(\' </td><td class="d1_wr">\', escape=False)\n    response.write(values["c_2"])\n    response.write(\' </td><td class="d1_rd">\', escape=False)\n    response.write(values["d_1"])\n    response.write(\' </td><td class="d1_wr">\', escape=False)\n    response.write(values["d_2"])\n    response.write(\' </td>\\n\\t<tr class="level2">\\n\\t\\t<th rowspan="2"> L2i </th> <td rowspan="2" class="odd" id="1_l2i"> \', escape=False)\n    response.write(list[1][2])\n    response.write(\' </td> <td rowspan="2" class="odd" id="2_l2i"> \', escape=False)\n    response.write(int(list[1][2].replace(",",""))-int(list[2][2].replace(",","")))\n    response.write(\' </td> <td rowspan="2" class="odd" id="3_l2i"> \', escape=False)\n    response.write(list[2][2])\n    response.write(\' </td> <td rowspan="2" class="odd" id="4_l2i"> \', escape=False)\n    response.write(str("%.2f"%((float(list[2][2].replace(",",""))/float(list[1][2].replace(",","")))*100))+"%")\n    response.write(\'</td>\\n\\t\\t<th rowspan="2" > L2d </th> <td colspan="2" style="text-align:center" class="odd" id="1_l2d"> \', escape=False)\n    response.write(values["e"])\n    response.write(\' </td> <td colspan="2" style="text-align:center" class="odd" id="2_l2d">\', escape=False)\n    response.write(values["f"])\n    response.write(\' </td><td colspan="2" style="text-align:center" class="odd" id="3_l2d">\', escape=False)\n    response.write(values["g"])\n    response.write(\'</td><td colspan="2" style="text-align:center" class="odd" id="4_l2d">\', escape=False)\n    response.write(values["h"])\n    response.write(\' </td>\\n\\t</tr>\\n\\t<tr class="level2">\\n\\t\\t<td class="l2d_rd"> \', escape=False)\n    response.write(values["e_1"])\n    response.write(\'</td> <td class="l2d_wr"> \', escape=False)\n    response.write(values["e_2"])\n    response.write(\' </td> <td class="l2d_rd">\', escape=False)\n    response.write(values["f_1"])\n    response.write(\' </td> <td class="l2d_wr">\', escape=False)\n    response.write(values["f_2"])\n    response.write(\' </td> <td class="l2d_rd">\', escape=False)\n    response.write(values["g_1"])\n    response.write(\'</td> <td class="l2d_wr"> \', escape=False)\n    response.write(values["g_2"])\n    response.write(\' </td> <td class="l2d_rd">\', escape=False)\n    response.write(values["h_1"])\n    response.write(\'</td> <td class="l2d_wr"> \', escape=False)\n    response.write(values["h_2"])\n    response.write(\' </td>\\n\\t</tr>\\n</table>\\n\\n\', escape=False)\n    pass\nresponse.write(\'\\n\\n\', escape=False)\nif len(list) == 0 and flag==1 :\n    response.write(\'\\n<h3> There was some error in the Input provided . Please try again with a valid input </h3>\\n\', escape=False)\n    pass\nresponse.write(\'\\n</body>\\n</html>\\n\', escape=False)\nresponse.write(\' \\n\\t\\t</section>\\n\\t\\t\\t\\t\\t\\n\\t\\t<aside>\\n\\t\\t\\t\\n\\t\\t</aside>\\n\\n\\t\\t<footer class="bottom">\\n\\t\\t</footer>\\n\\t</div>\\n\\n  </div> <!--! end of #container -->\\n\\n\\n  <!-- Javascript at the bottom for fast page loading -->\\n\\n  <!-- Grab Google CDN\\\'s jQuery. fall back to local if necessary -->\\n  <!--<script src="http://ajax.googleapis.com/ajax/libs/jquery/1.4.2/jquery.min.js"></script>-->\\n  <script>!window.jQuery && document.write(\\\'<script src="../js/jquery-1.4.2.min.js"><\\\\/script>\\\')</script>\\n  \\n  <script src="../js/MathJax/MathJax.js"> </script>\\n\\n  <!-- ********************************** ADD/OVERRIDE JAVASCRIPT FILES HERE ********************************* -->\\n  \\n\\n  <!-- ******************************************************************************************************* -->\\n\\n  <script src="../js/plugins.js?v=1"></script>\\n  <script src="../js/script.js?v=1"></script>\\n\\n  <!--[if lt IE 7 ]>\\n    <script src="js/dd_belatedpng.js?v=1"></script>\\n  <![endif]-->\\n\\n\\n  <!-- yui profiler and profileviewer - remove for production -->\\n  <script src="../js/profiling/yahoo-profiling.min.js?v=1"></script>\\n  <script src="../js/profiling/config.js?v=1"></script>\\n  <!-- end profiling code -->\\n\\n\\n  <!-- asynchronous google analytics: mathiasbynens.be/notes/async-analytics-snippet \\n       change the UA-XXXXX-X to be your site\\\'s ID -->\\n  <!--<script>\\n   var _gaq = [[\\\'_setAccount\\\', \\\'UA-XXXXX-X\\\'], [\\\'_trackPageview\\\']];\\n   (function(d, t) {\\n    var g = d.createElement(t),\\n        s = d.getElementsByTagName(t)[0];\\n    g.async = true;\\n    g.src = \\\'//www.google-analytics.com/ga.js\\\';\\n    s.parentNode.insertBefore(g, s);\\n   })(document, \\\'script\\\');\\n  </script>-->\\n</body>\\n</html>\\n\', escape=False)'
p6
sS'snapshot'
p7
(dp8
S'exception'
p9
(dp10
S'__getslice__'
p11
S"<method-wrapper '__getslice__' of exceptions.SyntaxError object>"
p12
sS'text'
p13
S'\'response.write(\\\'"></script>\\\\n\\\\t      <script typ...  $(this).css("background","url(\\\', escape=False)\\n\''
p14
sS'__str__'
p15
S"<method-wrapper '__str__' of exceptions.SyntaxError object>"
p16
sS'__reduce__'
p17
S'<built-in method __reduce__ of exceptions.SyntaxError object>'
p18
sS'__dict__'
p19
S'{}'
p20
sS'__sizeof__'
p21
S'<built-in method __sizeof__ of exceptions.SyntaxError object>'
p22
sS'__init__'
p23
S"<method-wrapper '__init__' of exceptions.SyntaxError object>"
p24
sS'__setattr__'
p25
S"<method-wrapper '__setattr__' of exceptions.SyntaxError object>"
p26
sS'__reduce_ex__'
p27
S'<built-in method __reduce_ex__ of exceptions.SyntaxError object>'
p28
sS'__new__'
p29
S'<built-in method __new__ of type object>'
p30
sS'__format__'
p31
S'<built-in method __format__ of exceptions.SyntaxError object>'
p32
sS'__class__'
p33
S"<type 'exceptions.SyntaxError'>"
p34
sS'filename'
p35
S"'/home/shrenik/web2py/applications/vlab/views/default/index.html'"
p36
sS'lineno'
p37
S'37'
p38
sS'msg'
p39
S"'invalid syntax'"
p40
sS'__doc__'
p41
S"'Invalid syntax.'"
p42
sS'__getitem__'
p43
S"<method-wrapper '__getitem__' of exceptions.SyntaxError object>"
p44
sS'__setstate__'
p45
S'<built-in method __setstate__ of exceptions.SyntaxError object>'
p46
sS'__getattribute__'
p47
S"<method-wrapper '__getattribute__' of exceptions.SyntaxError object>"
p48
sS'print_file_and_line'
p49
S'None'
p50
sS'args'
p51
S'(\'invalid syntax\', (\'/home/shrenik/web2py/applications/vlab/views/default/index.html\', 37, 8, \'response.write(\\\'"></script>\\\\n\\\\t      <script typ...  $(this).css("background","url(\\\', escape=False)\\n\'))'
p52
sS'__subclasshook__'
p53
S'<built-in method __subclasshook__ of type object>'
p54
sS'offset'
p55
S'8'
sS'__unicode__'
p56
S'<built-in method __unicode__ of exceptions.SyntaxError object>'
p57
sS'__delattr__'
p58
S"<method-wrapper '__delattr__' of exceptions.SyntaxError object>"
p59
sS'__repr__'
p60
S"<method-wrapper '__repr__' of exceptions.SyntaxError object>"
p61
sS'__hash__'
p62
S"<method-wrapper '__hash__' of exceptions.SyntaxError object>"
p63
ssS'evalue'
p64
S'invalid syntax (index.html, line 37)'
p65
sS'request'
p66
(dp67
S'function'
p68
S"'index'"
p69
sS'body'
p70
S'<cStringIO.StringO object>'
p71
sS'wsgi'
p72
S"<Storage {'start_response': <function <lambda> a...ING': 'gzip,deflate', 'HTTP_KEEP_ALIVE': '115'}}>"
p73
sS'extension'
p74
S"'html'"
p75
sS'vars'
p76
S'<Storage {}>'
p77
sS'cid'
p78
S'None'
p79
sS'url'
p80
S'<gluon.html.XML object>'
p81
sg51
S'[]'
p82
sS'controller'
p83
S"'default'"
p84
sS'cookies'
p85
S"<SimpleCookie: __utma='96992031.1671719183.12879...'127-0-0-1-f295cb87-e667-47a5-98c6-31fa54c8aab1'>"
p86
sS'application'
p87
S"'vlab'"
p88
sS'ajax'
p89
S'False'
p90
sS'client'
p91
S"'127.0.0.1'"
p92
sS'env'
p93
S"<Storage {'http_user_agent': 'Mozilla/5.0 (X11; ...nce': False, 'path_info': '/vlab/default/index'}>"
p94
sS'raw_args'
p95
S'None'
p96
sS'get_vars'
p97
S'<Storage {}>'
p98
sS'folder'
p99
S"'/home/shrenik/web2py/applications/vlab/'"
p100
sS'now'
p101
S'datetime.datetime(2010, 10, 25, 21, 12, 8, 562)'
p102
sS'post_vars'
p103
S'<Storage {}>'
p104
ssS'frames'
p105
(lp106
(dp107
S'file'
p108
S'/home/shrenik/web2py/gluon/restricted.py'
p109
sS'dump'
p110
(dp111
S'code'
p112
S'"response.write(\'\\\\n\', escape=False)\\nresponse.writ... </script>-->\\\\n</body>\\\\n</html>\\\\n\', escape=False)"'
p113
sS'layer'
p114
S"'/home/shrenik/web2py/applications/vlab/views/default/index.html'"
p115
sS'global compile2'
p116
S'<function compile2>'
p117
sS'ccode'
p118
S'undefined'
p119
ssS'lnum'
p120
I186
sS'lines'
p121
(dp122
I181
S''
sI182
S'    try:'
p123
sI183
S'        if type(code) == types.CodeType:'
p124
sI184
S'            ccode = code'
p125
sI185
S'        else:'
p126
sI186
S'            ccode = compile2(code,layer)'
p127
sI187
S''
sI188
S'        exec ccode in environment'
p128
sI189
S'    except HTTP:'
p129
sI190
S'        raise'
p130
ssS'call'
p131
S'(code="response.write(\'\\\\n\', escape=False)\\nresponse.writ... </script>-->\\\\n</body>\\\\n</html>\\\\n\', escape=False)", environment={\'A\': <class \'gluon.html.A\'>, \'Auth\': <class \'gluon.tools.Auth\'>, \'B\': <class \'gluon.html.B\'>, \'BEAUTIFY\': <class \'gluon.html.BEAUTIFY\'>, \'BODY\': <class \'gluon.html.BODY\'>, \'BR\': <class \'gluon.html.BR\'>, \'CENTER\': <class \'gluon.html.CENTER\'>, \'CLEANUP\': <class \'gluon.validators.CLEANUP\'>, \'CODE\': <class \'gluon.html.CODE\'>, \'CRYPT\': <class \'gluon.validators.CRYPT\'>, ...}, layer=\'/home/shrenik/web2py/applications/vlab/views/default/index.html\')'
p132
sS'func'
p133
S'restricted'
p134
sa(dp135
g108
S'/home/shrenik/web2py/gluon/restricted.py'
p136
sg110
(dp137
S'builtincompile'
p138
S'<built-in function compile>'
p139
sS'code'
p140
S'"response.write(\'\\\\n\', escape=False)\\nresponse.writ... </script>-->\\\\n</body>\\\\n</html>\\\\n\', escape=False)"'
p141
sS'code.rstrip'
p142
S'<built-in method rstrip of str object>'
p143
sS').replace'
p144
g119
sS'layer'
p145
S"'/home/shrenik/web2py/applications/vlab/views/default/index.html'"
p146
ssg120
I173
sg121
(dp147
I168
S''
sI169
S'def compile2(code,layer):'
p148
sI170
S'    """'
p149
sI171
S"    The +'\\n' is necessary else compile fails when code ends in a comment."
p150
sI172
S'    """'
p151
sI173
S"    return compile(code.rstrip().replace('\\r\\n','\\n')+'\\n', layer, 'exec')"
p152
sI174
S''
sI175
S"def restricted(code, environment={}, layer='Unknown'):"
p153
sI176
S'    """'
p154
sI177
S'    runs code in environment and returns the output. if an exception occurs'
p155
ssg131
S'(code="response.write(\'\\\\n\', escape=False)\\nresponse.writ... </script>-->\\\\n</body>\\\\n</html>\\\\n\', escape=False)", layer=\'/home/shrenik/web2py/applications/vlab/views/default/index.html\')'
p156
sg133
S'compile2'
p157
sasS'pyver'
p158
S'Python 2.6.6: /usr/bin/python'
p159
sS'session'
p160
(dp161
S'_formkey[login]'
p162
S"'636dea7f-72f7-4ef9-8255-bcf2a331567c'"
p163
sS'flash'
p164
S'None'
p165
sS'_formkey[register]'
p166
S"'1ae53a08-e549-40b5-8f07-9a0bf4995d6d'"
p167
sS'auth'
p168
S"<Storage {'expiration': 3600, 'user': <Storage {...010, 10, 25, 21, 12, 8, 562), 'remember': False}>"
p169
sS'_formkey[programs_create]'
p170
S"'cc7954f2-b9a8-4206-98be-f583253776b9'"
p171
ssS'etype'
p172
S"<type 'exceptions.SyntaxError'>"
p173
sS'date'
p174
S'Mon Oct 25 21:12:08 2010'
p175
sS'response'
p176
(dp177
S'status'
p178
S'200'
p179
sg70
S'<cStringIO.StringO object>'
p180
sg85
S"<SimpleCookie: session_id_vlab='127-0-0-1-f295cb87-e667-47a5-98c6-31fa54c8aab1'>"
p181
sS'_vars'
p182
S"{'flag': 0, 'form': <gluon.sqlhtml.SQLFORM object>, 'list': [], 'message': <lazyT 'Hello World'>, 'pid': [], 'values': {}}"
p183
sS'title'
p184
S"'vlab'"
p185
sS'session_file'
p186
S"<open file '/home/shrenik/web2py/applications/vl...295cb87-e667-47a5-98c6-31fa54c8aab1', mode 'rb+'>"
p187
sS'flash'
p188
S"<lazyT 'Welcome to web2py'>"
p189
sS'_custom_rollback'
p190
S'None'
p191
sS'session_id'
p192
S"'127-0-0-1-f295cb87-e667-47a5-98c6-31fa54c8aab1'"
p193
sS'headers'
p194
S"<Storage {'Expires': 'Mon, 25 Oct 2010 15:42:08 ...he, must-revalidate, post-check=0, pre-check=0'}>"
p195
sS'meta'
p196
S"<Storage {'keywords': 'bla bla bla', 'description': 'describe your app', 'author': 'you'}>"
p197
sS'session_filename'
p198
S"'/home/shrenik/web2py/applications/vlab/sessions/127-0-0-1-f295cb87-e667-47a5-98c6-31fa54c8aab1'"
p199
sS'postprocessing'
p200
S'[]'
p201
sS'menu'
p202
S"[(<lazyT 'Index'>, False, <gluon.html.XML object>, []), ('Change Layout', False, <gluon.html.XML object>)]"
p203
sS'_view_environment'
p204
S"{'A': <class 'gluon.html.A'>, 'Auth': <class 'gluon.tools.Auth'>, 'B': <class 'gluon.html.B'>, 'BEAUTIFY': <class 'gluon.html.BEAUTIFY'>, 'BODY': <class 'gluon.html.BODY'>, 'BR': <class 'gluon.html.BR'>, 'CENTER': <class 'gluon.html.CENTER'>, 'CLEANUP': <class 'gluon.validators.CLEANUP'>, 'CODE': <class 'gluon.html.CODE'>, 'CRYPT': <class 'gluon.validators.CRYPT'>, ...}"
p205
sS'subtitle'
p206
S"<lazyT 'customize me!'>"
p207
sS'session_id_name'
p208
S"'session_id_vlab'"
p209
sS'_custom_commit'
p210
S'None'
p211
sS'_caller'
p212
S'<function <lambda>>'
p213
sS'files'
p214
S'[]'
p215
sS'view'
p216
S"'default/index.html'"
p217
ssS'locals'
p218
(dp219
g3
S"'/home/shrenik/web2py/applications/vlab/views/default/index.html'"
p220
sg5
S'"response.write(\'\\\\n\', escape=False)\\nresponse.writ... </script>-->\\\\n</body>\\\\n</html>\\\\n\', escape=False)"'
p221
sssS'traceback'
p222
S'Traceback (most recent call last):\n  File "/home/shrenik/web2py/gluon/restricted.py", line 186, in restricted\n    ccode = compile2(code,layer)\n  File "/home/shrenik/web2py/gluon/restricted.py", line 173, in compile2\n    return compile(code.rstrip().replace(\'\\r\\n\',\'\\n\')+\'\\n\', layer, \'exec\')\n  File "/home/shrenik/web2py/applications/vlab/views/default/index.html", line 37\n    response.write(\'"></script>\\n\\t      <script type="text/javascript">\\n\\t\\t      $(document).ready(function(){\\n\\t\\t\\t\\t      $("#p1,#p2,#p3,#p4").hide();\\n\\t\\t\\t      $("#t1").focusin(function(){\\n\\t\\t\\t\\t      $(this).css("background-color","#e8edff");\\n\\t\\t\\t\\t      });\\n\\t\\t\\t      \\n\\t\\t\\t      $("#t1").focusout(function(){\\n\\t\\t\\t\\t      $(this).css("background","url(\', escape=False)\n           ^\nSyntaxError: invalid syntax\n'
p223
s.