(dp1
S'output'
p2
S''
sS'layer'
p3
S'/home/shrenik/web2py/applications/vlab/controllers/default.py'
p4
sS'code'
p5
S'\n#########################################################################\n## This is a samples controller\n## - index is the default action of any application\n## - user is required for authentication and authorization\n## - download is for downloading files uploaded in the db (does streaming)\n## - call exposes all registered services (none by default)\n#########################################################################  \n@auth.requires_login()\ndef index():\n    import os\n    import re\n    import commands\n    """\n    example action using the internationalization operator T and flash\n    rendered by views/default/index.html or views/generic.html\n    """\n    if session.i1_ass :\n\t    print session.i1_ass\n\t    db.programs.i1_associativity.default=session.i1_ass\n    pid=[]\n    values={}\n    flag=0\n    compile=True\n    list=[]\n    out="Test"\n    inp=None\n    out_mod=None\n    input_path=""; i1_s=0\n    form=SQLFORM(db.programs)\n    if(form.accepts(request.vars,session)):\n\t session.i1_ass=form.vars.i1_associativity\n         flag=1\n\t path=os.getcwd()\n         path=path+\'/applications/vlab/uploads/\'#+form.vars.file\n         inp=commands.getstatusoutput(\'cc \'+path+form.vars.file+\' -o\'+path+str(auth.user.id))\n\t if inp[0] != 0:\n\t\t compile=False\n\t i1_s=form.vars.i1_size * 1024; values["i1_s"]=i1_s\n\t d1_s=form.vars.d1_size * 1024; values["d1_s"]=d1_s\n\t l2_s=form.vars.l2_size * 1024; values["l2_s"]=l2_s\n\t values["compile"]=compile; values["input"]=""\n\t if compile==True:\n          command=\'valgrind --tool=cachegrind --I1=\'+str(i1_s)+\',\'+str(form.vars.i1_associativity)+\',\'+str(form.vars.i1_line_size)+ \' --cachegrind-out-file=\'+path+str(auth.user.id)+\'.%p \'+path+str(auth.user.id)\n          if len(form.vars.input_file)>0:\n\t     input_path=os.getcwd()\n             input_path=input_path+\'/applications/vlab/uploads/\'+form.vars.input_file; values["input"]=input_path\n             command=command+\'<\'+input_path\n         \n\t  out=commands.getstatusoutput(command)\n\t  out_mod=re.split(\'\\n\',out[1])\n\t  regex="==(\\d*)==\\s*([^:]*):\\s*(\\d+.*)"\n\t  for i in out_mod:\n\t\t match=re.findall(regex,i)\n\t\t if len(match)>0:\n\t\t \tprocid=match[0][0]\n\t\t\tif procid not in pid:\n\t\t\t\t pid.append(procid)\n\t\t\tlist.append(match[0])\t\n    if len(list)>0:\n\tregex="([^\\(]+)\\(\\s*(\\S+)[^\\+]*\\+\\s*(\\S+).*" ; t1= re.findall(regex,list[5][2]) ; values["a"]=t1[0][0] ; values["a_1"]=t1[0][1] ; values["a_2"] = t1[0][2] \n\tt2= re.findall(regex,list[6][2]) ; values["c"]=t2[0][0] ; values["c_1"]=t2[0][1] ; values["c_2"] = t2[0][2] ; values["e"]=values["c"] ; values["e_1"] = values["c_1"]; values["e_2"]=values["c_2"] \n\tt3= re.findall(regex,list[8][2]) ; values["d"]=t3[0][0] ; values["d_1"]=t3[0][1] ; values["d_2"] = t3[0][2] \n\tt4= re.findall(regex,list[7][2]) ; values["g"]=t4[0][0] ; values["g_1"]=t4[0][1] ; values["g_2"] = t4[0][2]\n\tvalues["b"]= int(values["a"].replace(",",""))-int(values["c"].replace(",","")) ; values["b_1"]= int(values["a_1"].replace(",",""))-int(values["c_1"].replace(",","")) ; values["b_2"]= int(values["a_2"].replace(",",""))-int(values["c_2"].replace(",","")) \n\tvalues["f"]= int(values["e"].replace(",",""))-int(values["g"].replace(",","")) ; values["f_1"]= int(values["e_1"].replace(",",""))-int(values["g_1"].replace(",","")) ; values["f_2"]= int(values["e_2"].replace(",",""))-int(values["g_2"].replace(",","")) \n\tvalues["h"]=str("%.2f"%((float(values["g"].replace(",",""))/float(values["e"].replace(",","")))*100))+"%" \n\tvalues["h_1"]=str("%.2f"%((float(values["g_1"].replace(",",""))/float(values["e_1"].replace(",","")))*100))+"%"\n\tvalues["h_2"]=str("%.2f"%((float(values["g_2"].replace(",",""))/float(values["e_2"].replace(",","")))*100))+"%"\n    #session.values={}\n    #session.values=values\n    session.input=input_path\n    session.compile=compile\n    session.i1_s=i1_s\n    response.flash = T(\'Welcome to web2py\')\n    return dict(form=form,message=T(\'Hello World\'),list=list,pid=pid,flag=flag,values=values,compile=compile)\n\ndef show_session():\n\treturn dict(session=session)\n\ndef show_graphs():\n\t import os\n\t import re\n\t import commands\n\t list=[]\n\t #values=session.values\n\t y1=[]\n\t y2=[]\n\t path=os.getcwd()\n         path=path+\'/applications/vlab/uploads/\'\n\t input_path=session.input\n\t if session.compile==True:\n\t\tfor i in [1,2,4,8]: \n\t\t\tprint i\n\t\t\tcommand=\'valgrind --tool=cachegrind --I1=\'+str(session.i1_s)+\',\'+str(i)+\',\'+str(64)+ \' --cachegrind-out-file=\'+path+str(auth.user.id)+\'.%p \'+path+str(auth.user.id)\n\t \t\tif input_path != None:\n\t   \t\t\tcommand=command + \'<\' +input_path\n\t\t\tout=commands.getstatusoutput(command)\n\t\t\tsleep(1)\n\t\t\tout_mod=re.split(\'\\n\',out[1])\n\t  \t\tregex="==(\\d*)==\\s*([^:]*):\\s*(\\d+.*)"\n\t  \t\tfor j in out_mod:\n\t\t \t\tmatch=re.findall(regex,j)\n\t\t \t\tif len(match)>0:\n\t\t\t\t\tlist.append(match[0])\n\t\t\tprint out[1]\n\n\t\t\tif len(list) >0:\n\t\t\t\ty1.append(float(re.findall(\'[^%]+\',(list[3][2]))[0]))\n\t\t\t\tregex="([^\\(]+)\\(\\s*(\\S+)[^\\+]*\\+\\s*(\\S+).*"\n\t\t\t\tt3= re.findall(regex,list[8][2])\n\t\t\t\ty2.append(float(re.findall(\'[^%]+\',t3[0][0])[0]))\n\t\t\n\t\tctr=0\n\t\tans="[["\n\t\tfor i in [1,2,4,8]:\n\t\t\tans=ans+\'[\'+str(i)+\',\'+str(y1[ctr])+\']\'\n\t\t\tif i!=8:\n\t\t\t\tans+=\',\'\n\t\t\tctr+=1\n\t\tans+=\'],\'\n\t\tans+="["\n\t\tctr=0\n\t\tfor i in [1,2,4,8]:\n\t\t\tans=ans+\'[\'+str(i)+\',\'+str(y2[ctr])+\']\'\n\t\t\tif i!=8:\n\t\t\t\tans+=\',\'\n\t\t\tctr+=1\n\t\tans+=\']]\'\n\t\tprint ans\n         return dict(ans=ans)\n\n\t \n\n\ndef customize():\n    form=SQLFORM(db.options)\n    \ndef user():\n    """\n    exposes:\n    http://..../[app]/default/user/login \n    http://..../[app]/default/user/logout\n    http://..../[app]/default/user/register\n    http://..../[app]/default/user/profile\n    http://..../[app]/default/user/retrieve_password\n    http://..../[app]/default/user/change_password\n    use @auth.requires_login()\n        @auth.requires_membership(\'group name\')\n        @auth.requires_permission(\'read\',\'table name\',record_id)\n    to decorate functions that need access control\n    """\n    return dict(form=auth())\n\n\ndef download():\n    """\n    allows downloading of uploaded files\n    http://..../[app]/default/download/[filename]\n    """\n    return response.download(request,db)\n\n\ndef call():\n    """\n    exposes services. for example:\n    http://..../[app]/default/call/jsonrpc\n    decorate with @services.jsonrpc the functions to expose\n    supports xml, json, xmlrpc, jsonrpc, amfrpc, rss, csv\n    """\n    session.forget()\n    return service()\n\nresponse._vars=response._caller(show_graphs)\n'
p6
sS'snapshot'
p7
(dp8
S'exception'
p9
(dp10
S'__hash__'
p11
S"<method-wrapper '__hash__' of exceptions.NameError object>"
p12
sS'__setattr__'
p13
S"<method-wrapper '__setattr__' of exceptions.NameError object>"
p14
sS'__reduce_ex__'
p15
S'<built-in method __reduce_ex__ of exceptions.NameError object>'
p16
sS'__getslice__'
p17
S"<method-wrapper '__getslice__' of exceptions.NameError object>"
p18
sS'__getitem__'
p19
S"<method-wrapper '__getitem__' of exceptions.NameError object>"
p20
sS'__setstate__'
p21
S'<built-in method __setstate__ of exceptions.NameError object>'
p22
sS'__reduce__'
p23
S'<built-in method __reduce__ of exceptions.NameError object>'
p24
sS'__str__'
p25
S"<method-wrapper '__str__' of exceptions.NameError object>"
p26
sS'__format__'
p27
S'<built-in method __format__ of exceptions.NameError object>'
p28
sS'__getattribute__'
p29
S"<method-wrapper '__getattribute__' of exceptions.NameError object>"
p30
sS'__class__'
p31
S"<type 'exceptions.NameError'>"
p32
sS'__unicode__'
p33
S'<built-in method __unicode__ of exceptions.NameError object>'
p34
sS'__delattr__'
p35
S"<method-wrapper '__delattr__' of exceptions.NameError object>"
p36
sS'__subclasshook__'
p37
S'<built-in method __subclasshook__ of type object>'
p38
sS'__repr__'
p39
S"<method-wrapper '__repr__' of exceptions.NameError object>"
p40
sS'args'
p41
S'("global name \'sleep\' is not defined",)'
p42
sS'__dict__'
p43
S'{}'
p44
sS'__sizeof__'
p45
S'<built-in method __sizeof__ of exceptions.NameError object>'
p46
sS'__doc__'
p47
S"'Name not found globally.'"
p48
sS'__init__'
p49
S"<method-wrapper '__init__' of exceptions.NameError object>"
p50
sS'__new__'
p51
S'<built-in method __new__ of type object>'
p52
ssS'evalue'
p53
S"global name 'sleep' is not defined"
p54
sS'request'
p55
(dp56
S'function'
p57
S"'show_graphs'"
p58
sS'body'
p59
S'<cStringIO.StringO object>'
p60
sS'wsgi'
p61
S"<Storage {'start_response': <function <lambda> a...ING': 'gzip,deflate', 'HTTP_KEEP_ALIVE': '115'}}>"
p62
sS'extension'
p63
S"'html'"
p64
sS'vars'
p65
S'<Storage {}>'
p66
sS'cid'
p67
S'None'
p68
sS'url'
p69
S'<gluon.html.XML object>'
p70
sg41
S'[]'
p71
sS'controller'
p72
S"'default'"
p73
sS'cookies'
p74
S"<SimpleCookie: __utma='96992031.1671719183.12879...'127-0-0-1-7c81a3a8-064b-4080-b26a-e68a38b3f52f'>"
p75
sS'application'
p76
S"'vlab'"
p77
sS'ajax'
p78
S'False'
p79
sS'client'
p80
S"'127.0.0.1'"
p81
sS'env'
p82
S"<Storage {'http_user_agent': 'Mozilla/5.0 (X11; ...False, 'path_info': '/vlab/default/show_graphs'}>"
p83
sS'raw_args'
p84
S'None'
p85
sS'get_vars'
p86
S'<Storage {}>'
p87
sS'folder'
p88
S"'/home/shrenik/web2py/applications/vlab/'"
p89
sS'now'
p90
S'datetime.datetime(2010, 10, 27, 2, 40, 42, 418040)'
p91
sS'post_vars'
p92
S'<Storage {}>'
p93
ssS'frames'
p94
(lp95
(dp96
S'file'
p97
S'/home/shrenik/web2py/gluon/restricted.py'
p98
sS'dump'
p99
(dp100
S'environment'
p101
S"{'A': <class 'gluon.html.A'>, 'Auth': <class 'gluon.tools.Auth'>, 'B': <class 'gluon.html.B'>, 'BEAUTIFY': <class 'gluon.html.BEAUTIFY'>, 'BODY': <class 'gluon.html.BODY'>, 'BR': <class 'gluon.html.BR'>, 'CENTER': <class 'gluon.html.CENTER'>, 'CLEANUP': <class 'gluon.validators.CLEANUP'>, 'CODE': <class 'gluon.html.CODE'>, 'CRYPT': <class 'gluon.validators.CRYPT'>, ...}"
p102
sS'ccode'
p103
S'<code object <module> at 0x9740de8, file "/home/...pplications/vlab/controllers/default.py", line 9>'
p104
ssS'lnum'
p105
I188
sS'lines'
p106
(dp107
I192
S'        # XXX Show exception in Wing IDE if running in debugger'
p108
sI183
S'        if type(code) == types.CodeType:'
p109
sI184
S'            ccode = code'
p110
sI185
S'        else:'
p111
sI186
S'            ccode = compile2(code,layer)'
p112
sI187
S''
sI188
S'        exec ccode in environment'
p113
sI189
S'    except HTTP:'
p114
sI190
S'        raise'
p115
sI191
S'    except Exception:'
p116
ssS'call'
p117
S"(code='\\n###############################################...()\\n\\nresponse._vars=response._caller(show_graphs)\\n', environment={'A': <class 'gluon.html.A'>, 'Auth': <class 'gluon.tools.Auth'>, 'B': <class 'gluon.html.B'>, 'BEAUTIFY': <class 'gluon.html.BEAUTIFY'>, 'BODY': <class 'gluon.html.BODY'>, 'BR': <class 'gluon.html.BR'>, 'CENTER': <class 'gluon.html.CENTER'>, 'CLEANUP': <class 'gluon.validators.CLEANUP'>, 'CODE': <class 'gluon.html.CODE'>, 'CRYPT': <class 'gluon.validators.CRYPT'>, ...}, layer='/home/shrenik/web2py/applications/vlab/controllers/default.py')"
p118
sS'func'
p119
S'restricted'
p120
sa(dp121
g97
S'/home/shrenik/web2py/applications/vlab/controllers/default.py'
p122
sg99
(dp123
sg105
I174
sg106
(dp124
I163
S''
sI164
S'def call():'
p125
sI165
S'    """'
p126
sI166
S'    exposes services. for example:'
p127
sI167
S'    http://..../[app]/default/call/jsonrpc'
p128
sI168
S'    decorate with @services.jsonrpc the functions to expose'
p129
sI169
S'    supports xml, json, xmlrpc, jsonrpc, amfrpc, rss, csv'
p130
sI170
S'    """'
p131
sI171
S'    session.forget()'
p132
sI172
S'    return service()'
p133
ssg117
S'()'
p134
sg119
S'<module>'
p135
sa(dp136
g97
S'/home/shrenik/web2py/gluon/globals.py'
p137
sg99
(dp138
S'self'
p139
S'undefined'
p140
sS'f'
S'<function show_graphs>'
p141
ssg105
I96
sg106
(dp142
I96
S'        self._caller = lambda f: f()'
p143
sI97
S'        self._view_environment = None'
p144
sI98
S'        self._custom_commit = None'
p145
sI99
S'        self._custom_rollback = None'
p146
sI100
S''
sI91
S"        self.flash = ''           # used by the default view layout"
p147
sI92
S'        self.meta = Storage()     # used by web2py_ajax.html'
p148
sI93
S'        self.menu = []            # used by the default view layout'
p149
sI94
S'        self.files = []           # used by web2py_ajax.html'
p150
sI95
S'        self._vars = None'
p151
ssg117
S'(f=<function show_graphs>)'
p152
sg119
S'<lambda>'
p153
sa(dp154
g97
S'/home/shrenik/web2py/applications/vlab/controllers/default.py'
p155
sg99
(dp156
S'sleep'
p157
g140
ssg105
I99
sg106
(dp158
I96
S'\t \t\tif input_path != None:'
p159
sI97
S"\t   \t\t\tcommand=command + '<' +input_path"
p160
sI98
S'\t\t\tout=commands.getstatusoutput(command)'
p161
sI99
S'\t\t\tsleep(1)'
p162
sI100
S"\t\t\tout_mod=re.split('\\n',out[1])"
p163
sI101
S'\t  \t\tregex="==(\\d*)==\\s*([^:]*):\\s*(\\d+.*)"'
p164
sI102
S'\t  \t\tfor j in out_mod:'
p165
sI103
S'\t\t \t\tmatch=re.findall(regex,j)'
p166
sI94
S'\t\t\tprint i'
p167
sI95
S"\t\t\tcommand='valgrind --tool=cachegrind --I1='+str(session.i1_s)+','+str(i)+','+str(64)+ ' --cachegrind-out-file='+path+str(auth.user.id)+'.%p '+path+str(auth.user.id)"
p168
ssg117
S'()'
p169
sg119
S'show_graphs'
p170
sasS'pyver'
p171
S'Python 2.6.6: /usr/bin/python'
p172
sS'session'
p173
(dp174
S'i1_ass'
p175
S'4'
sS'flash'
p176
S'None'
p177
sS'auth'
p178
S"<Storage {'expiration': 3600, 'user': <Storage {..., 10, 27, 2, 40, 42, 418040), 'remember': False}>"
p179
sS'compile'
p180
S'True'
p181
sS'i1_s'
p182
S'2048'
p183
sS'_formkey[programs_create]'
p184
S"'ccc1ca6f-1f86-4e3f-8c3c-bd43e57f6ae1'"
p185
sS'input'
p186
S"'/home/shrenik/web2py/applications/vlab/uploads/programs.input_file.a37e7098f49e8ce5.74657374.txt'"
p187
sS'_formkey[login]'
p188
S"'f2d45f6a-61fc-44bd-9639-0a4a5bc8f4d7'"
p189
ssS'etype'
p190
S"<type 'exceptions.NameError'>"
p191
sS'date'
p192
S'Wed Oct 27 02:40:43 2010'
p193
sS'response'
p194
(dp195
S'status'
p196
S'200'
p197
sg59
S'<cStringIO.StringO object>'
p198
sg74
S"<SimpleCookie: session_id_vlab='127-0-0-1-7c81a3a8-064b-4080-b26a-e68a38b3f52f'>"
p199
sS'_vars'
p200
S'None'
p201
sS'title'
p202
S"'vlab'"
p203
sS'session_file'
p204
S"<open file '/home/shrenik/web2py/applications/vl...c81a3a8-064b-4080-b26a-e68a38b3f52f', mode 'rb+'>"
p205
sS'flash'
p206
S"''"
p207
sS'_custom_rollback'
p208
S'None'
p209
sS'session_id'
p210
S"'127-0-0-1-7c81a3a8-064b-4080-b26a-e68a38b3f52f'"
p211
sS'headers'
p212
S"<Storage {'Expires': 'Tue, 26 Oct 2010 21:10:42 ...he, must-revalidate, post-check=0, pre-check=0'}>"
p213
sS'meta'
p214
S"<Storage {'keywords': 'bla bla bla', 'description': 'describe your app', 'author': 'you'}>"
p215
sS'session_filename'
p216
S"'/home/shrenik/web2py/applications/vlab/sessions/127-0-0-1-7c81a3a8-064b-4080-b26a-e68a38b3f52f'"
p217
sS'postprocessing'
p218
S'[]'
p219
sS'menu'
p220
S"[(<lazyT 'Index'>, False, <gluon.html.XML object>, []), ('Change Layout', False, <gluon.html.XML object>)]"
p221
sS'_view_environment'
p222
S"{'A': <class 'gluon.html.A'>, 'Auth': <class 'gluon.tools.Auth'>, 'B': <class 'gluon.html.B'>, 'BEAUTIFY': <class 'gluon.html.BEAUTIFY'>, 'BODY': <class 'gluon.html.BODY'>, 'BR': <class 'gluon.html.BR'>, 'CENTER': <class 'gluon.html.CENTER'>, 'CLEANUP': <class 'gluon.validators.CLEANUP'>, 'CODE': <class 'gluon.html.CODE'>, 'CRYPT': <class 'gluon.validators.CRYPT'>, ...}"
p223
sS'subtitle'
p224
S"<lazyT 'customize me!'>"
p225
sS'session_id_name'
p226
S"'session_id_vlab'"
p227
sS'_custom_commit'
p228
S'None'
p229
sS'_caller'
p230
S'<function <lambda>>'
p231
sS'files'
p232
S'[]'
p233
sS'view'
p234
S"'default/show_graphs.html'"
p235
ssS'locals'
p236
(dp237
S'commands'
p238
S"<module 'commands' from '/usr/lib/python2.6/commands.pyc'>"
p239
sS'input_path'
p240
S"'/home/shrenik/web2py/applications/vlab/uploads/programs.input_file.a37e7098f49e8ce5.74657374.txt'"
p241
sS'i'
S'1'
sS'list'
p242
S'[]'
p243
sS're'
p244
S"<module 're' from '/usr/lib/python2.6/re.pyc'>"
p245
sS'command'
p246
S"'valgrind --tool=cachegrind --I1=2048,1,64 --cach...programs.input_file.a37e7098f49e8ce5.74657374.txt'"
p247
sS'y1'
p248
S'[]'
p249
sS'path'
p250
S"'/home/shrenik/web2py/applications/vlab/uploads/'"
p251
sS'y2'
p252
S'[]'
p253
sS'os'
p254
S"<module 'os' from '/usr/lib/python2.6/os.pyc'>"
p255
sS'out'
p256
S"(0, '==5082== Cachegrind, a cache and branch-predicti...2 miss rate:      0.6% (    0.6%     +    0.5%  )')"
p257
sssS'traceback'
p258
S'Traceback (most recent call last):\n  File "/home/shrenik/web2py/gluon/restricted.py", line 188, in restricted\n    exec ccode in environment\n  File "/home/shrenik/web2py/applications/vlab/controllers/default.py", line 174, in <module>\n  File "/home/shrenik/web2py/gluon/globals.py", line 96, in <lambda>\n    self._caller = lambda f: f()\n  File "/home/shrenik/web2py/applications/vlab/controllers/default.py", line 99, in show_graphs\n    sleep(1)\nNameError: global name \'sleep\' is not defined\n'
p259
s.