(dp1
S'output'
p2
S''
sS'layer'
p3
S'/home/shrenik/web2py/applications/vlab/views/default/index.html'
p4
sS'code'
p5
S'response.write(\'<html>\\n<head>\\n\\t<script type="text/javascript">\\n\\t\\tfunction startTime()\\n\\t\\t{\\n\\t\\tvar today=new Date();\\n\\t\\tvar h=today.getHours();\\n\\t\\tvar m=today.getMinutes();\\n\\t\\tvar s=today.getSeconds();\\n\\t\\t// add a zero in front of numbers<10\\n\\t\\tm=checkTime(m);\\n\\t\\ts=checkTime(s);\\n\\t\\tdocument.getElementById(\\\'txt\\\').innerHTML=h+":"+m+":"+s;\\n\\t\\tt=setTimeout(\\\'startTime()\\\',500);\\n\\t\\t}\\n\\n\\t\\tfunction checkTime(i)\\n\\t\\t{\\n\\t\\tif (i<10)\\n\\t\\t  {\\n\\t\\t    i="0" + i;\\n\\t\\t      }\\n\\t\\t      return i;\\n\\t\\t      }\\n      </script>\\n</head>\\n<body onload="startTime()"> \\n\\n\', escape=False)\nresponse.write(\'<!DOCTYPE html PUBLIC "-//W3C//DTD XHTML 1.0 Strict//EN" "http://www.w3.org/TR/xhtml1/DTD/xhtml1-strict.dtd">\\n<!--\\n\\tDesign by Free CSS Templates\\n\\thttp://www.freecsstemplates.org\\n\\tReleased for free under a Creative Commons Attribution 2.5 License\\n-->\\n<html xmlns="http://www.w3.org/1999/xhtml">\\n <head>\\n  <title>\\n   \', escape=False)\nresponse.write(response.title or request.application)\nresponse.write(\'\\n  </title>\\n  \', escape=False)\nresponse.files.append(URL(request.application,\'static\',\'plugin_layouts/layouts/Civilized/default.css\'))\nresponse.write(\'\\n\', escape=False)\nresponse.files.insert(0,URL(r=request,c=\'static\',f=\'jquery.js\'))\nresponse.files.insert(1,URL(r=request,c=\'static\',f=\'calendar.css\'))\nresponse.files.insert(2,URL(r=request,c=\'static\',f=\'calendar.js\'))\nfor _item in response.meta or []:\n    response.write(\'\\n     <meta name="\', escape=False)\n    response.write(_item)\n    response.write(\'" content="\', escape=False)\n    response.write(response.meta[_item])\n    response.write(\'" />\', escape=False)\n    pass\nfor _k,_file in enumerate(response.files or []):\n    if _file in response.files[:_k]:\n        continue\n    elif _file.lower().endswith(\'.css\'):\n        response.write(\'\\n     <link href="\', escape=False)\n        response.write(_file)\n        response.write(\'" rel="stylesheet" type="text/css" />\', escape=False)\n    elif _file.lower().endswith(\'.js\'):\n        response.write(\'\\n     <script src="\', escape=False)\n        response.write(_file)\n        response.write(\'" type="text/javascript"></script>\', escape=False)\n        pass\n    pass\nresponse.write(\'\\n<script type="text/javascript"><!--\\nfunction popup(url) {\\n  newwindow=window.open(url,\\\'name\\\',\\\'height=400,width=600\\\');\\n  if (window.focus) newwindow.focus();\\n  return false;\\n}\\nfunction collapse(id) { jQuery(\\\'#\\\'+id).slideToggle(); }\\nfunction fade(id,value) { if(value>0) jQuery(\\\'#\\\'+id).hide().fadeIn(\\\'slow\\\'); else jQuery(\\\'#\\\'+id).show().fadeOut(\\\'slow\\\'); }\\nfunction ajax(u,s,t) {\\n    query = \\\'\\\';\\n    if (typeof s == "string") {\\n        d = jQuery(s).serialize();\\n        if(d){ query = d; }\\n    } else {\\n        pcs = [];\\n        for(i=0; i<s.length; i++) {\\n            q = jQuery("#"+s[i]).serialize();\\n            if(q){pcs.push(q);}\\n        }\\n        if (pcs.length>0){query = pcs.join("&");}\\n    }\\n    jQuery.ajax({type: "POST", url: u, data: query, success: function(msg) { if(t) { if(t==\\\':eval\\\') eval(msg); else jQuery("#" + t).html(msg); } } }); \\n}\\nString.prototype.reverse = function () { return this.split(\\\'\\\').reverse().join(\\\'\\\');};\\nfunction web2py_ajax_init() {\\n  jQuery(\\\'.hidden\\\').hide();\\n  jQuery(\\\'.error\\\').hide().slideDown(\\\'slow\\\');\\n  jQuery(\\\'.flash\\\').click(function() { jQuery(this).fadeOut(\\\'slow\\\'); return false; });\\n  jQuery(\\\'input.integer\\\').keyup(function(){this.value=this.value.reverse().replace(/[^0-9\\\\-]|\\\\-(?=.)/g,\\\'\\\').reverse();});\\n  jQuery(\\\'input.double\\\').keyup(function(){this.value=this.value.reverse().replace(/[^0-9\\\\-\\\\.]|[\\\\-](?=.)|[\\\\.](?=[0-9]*[\\\\.])/g,\\\'\\\').reverse();});\\n  jQuery("input[type=\\\'checkbox\\\'].delete").each(function(){jQuery(this).click(function() { if(this.checked) if(!confirm("\', escape=False)\nresponse.write(T(\'Sure you want to delete this object?\'))\nresponse.write(\'")) this.checked=false; });});\\n  try {jQuery("input.date").focus( function() {Calendar.setup({\\n     inputField:this.id, ifFormat:"\', escape=False)\nresponse.write(T(\'%Y-%m-%d\'))\nresponse.write(\'", showsTime:false\\n  }); }); } catch(e) {};\\n  try { jQuery("input.datetime").focus( function() {Calendar.setup({\\n     inputField:this.id, ifFormat:"\', escape=False)\nresponse.write(T(\'%Y-%m-%d %H:%M:%S\'))\nresponse.write(\'", showsTime: true,timeFormat: "24"\\n  }); }); } catch(e) {};\\n  try { jQuery("input.time").clockpick({\\n      starthour:0, endhour:23, showminutes:true, military:true\\n  }); } catch(e) {};\\n};\\njQuery(document).ready(function(){\\n   jQuery(\\\'.flash\\\').hide();\\n   if(jQuery(\\\'.flash\\\').html()!=\\\'\\\') jQuery(\\\'.flash\\\').slideDown(\\\'slow\\\');\\n   web2py_ajax_init();});\\n\\nfunction web2py_trap_form(action,target) {\\n   jQuery(\\\'#\\\'+target+\\\' form\\\').each(function(i){\\n      var form=jQuery(this);\\n      if(!form.hasClass(\\\'no_trap\\\'))\\n        form.submit(function(obj){\\n         jQuery(\\\'.flash\\\').hide().html(\\\'\\\');\\n         web2py_ajax_page(\\\'post\\\',action,form.serialize(),target);\\n         return false;\\n      });\\n   });\\n}\\n\\nfunction web2py_ajax_page(method,action,data,target) {\\n  jQuery.ajax({\\\'type\\\':method,\\\'url\\\':action,\\\'data\\\':data,\\n    \\\'beforeSend\\\':function(xhr){\\n      xhr.setRequestHeader(\\\'web2py-component-location\\\',document.location);\\n      xhr.setRequestHeader(\\\'web2py-component-element\\\',target);},\\n    \\\'complete\\\':function(xhr,text){\\n      command=xhr.getResponseHeader(\\\'web2py-component-command\\\');\\n      if(command) eval(command);\\n      flash=xhr.getResponseHeader(\\\'web2py-component-flash\\\');\\n      if(flash) jQuery(\\\'.flash\\\').html(flash).slideDown();\\n      },\\n    \\\'success\\\': function(text) {\\n      jQuery(\\\'#\\\'+target).html(text);\\n      web2py_trap_form(action,target);\\n      web2py_ajax_init();\\n      }\\n    });\\n}\\nfunction web2py_component(action,target) {\\n    jQuery(document).ready(function(){ web2py_ajax_page(\\\'get\\\',action,null,target); });\\n}\\n//--></script>\\n\', escape=False)\nresponse.write(\'\\n  <style>\\n   .flash {\\n    z-index: 2;\\n    position: absolute;\\n    top: 0px;\\n    right: 20%;\\n    width: 60%;\\n    height: 50px;\\n    opacity: 0.75;\\n    margin: 0 auto;\\n    text-align: center;\\n    clear: both;\\n    border: 1px #000000 solid;\\n    color: black;\\n    font-size: 12pt;\\n    padding: 100px 10px 10px 10px;\\n    cursor: pointer;\\n    background: white;\\n\\n}\\ndiv.error {\\n    background-color: red;\\n    color: white;\\n    padding: 3px;\\n}\\n  </style>\\n </head>\\n <body>\\n  <div id="outer">\\n   <div id="header">\\n    <h1>\\n     \', escape=False)\nresponse.write(response.title or request.application)\nresponse.write(\'\\n    </h1>\\n    <h2>\\n     \', escape=False)\nresponse.write(response.subtitle or \'=response.subtitle\')\nresponse.write(\'\\n    </h2>\\n   </div>\\n   <div id="menu">\\n    \', escape=False)\nresponse.write(MENU(response.menu))\nresponse.write(\'\\n   </div>\\n   <div id="content">\\n    <div class="flash">\', escape=False)\nresponse.write(response.flash or \'\')\nresponse.write(\'</div>\\n    \', escape=False)\nresponse.write(\'\\n<h4 id="txt" align="right"></h4>\\n\', escape=False)\nresponse.write(form)\nresponse.write(\'\\n\', escape=False)\nif len(list) > 0:\n    response.write(\'\\n<table>\\n\\t<tr width>\\n\\t\\t<th width="20%"> pid </th>\\n\\t\\t<th width="40%"> parameter </th>\\n\\t\\t<th width="40%"> value</th>\\n\\t</tr>\\n\\t\', escape=False)\n    for l in list:\n        response.write(\'\\n\\t<tr>\\n\\t\\t<td> \', escape=False)\n        response.write(l[0])\n        response.write(\' </td>\\n\\t\\t<td> \', escape=False)\n        response.write(l[1])\n        response.write(\' </td>\\n\\t\\t<td> \', escape=False)\n        response.write(l[2])\n        response.write(\' </td>\\n\\t</tr>\\n\\t\', escape=False)\n        pass\n    response.write(\'\\n</table>\\n\', escape=False)\n    import re\n    response.write(\'\\n\', escape=False)\n    regex="([^\\(]+)\\(\\s*(\\S+)[^\\+]*\\+\\s*(\\S+).*" ; t1= re.findall(regex,list[5][2]) ; a=t1[0][0] ; a_1=t1[0][1] ; a_2 = t1[0][2]\n    response.write(\'\\n\', escape=False)\n    t2= re.findall(regex,list[6][2]) ; c=t2[0][0] ; c_1=t2[0][1] ; c_2 = t2[0][2] ; e=c ; e_1 = c_1; e_2=c_2\n    response.write(\'\\n\', escape=False)\n    t3= re.findall(regex,list[8][2]) ; d=t3[0][0] ; d_1=t3[0][1] ; d_2 = t3[0][2]\n    response.write(\'\\n\', escape=False)\n    t4= re.findall(regex,list[7][2]) ; g=t4[0][0] ; g_1=t4[0][1] ; g_2 = t4[0][2]\n    response.write(\'\\n\', escape=False)\n    b= int(a.replace(",",""))-int(c.replace(",","")) ; b_1= int(a_1.replace(",",""))-int(c_1.replace(",","")) ; b_2= int(a_2.replace(",",""))-int(c_2.replace(",",""))\n    response.write(\'\\n\', escape=False)\n    f= int(e.replace(",",""))-int(g.replace(",","")) ; f_1= int(e_1.replace(",",""))-int(g_1.replace(",","")) ; f_2= int(e_2.replace(",",""))-int(g_2.replace(",",""))\n    response.write(\'\\n\', escape=False)\n    h="%.2f"%((float(g.replace(",",""))/float(e.replace(",","")))*100);h_1="%.2f"%((float(g_1.replace(",",""))/float(e_1.replace(",","")))*100); h_2="%.2f"%((float(g_2.replace(",",""))/float(e_2.replace(",","")))*100)\n    <table style="width:100%" border="1">\n    <tr>\n    <th colspan="5" style="text-align:center"> INSTRUCTION </th>\n    <th colspan="9" style="text-align:center"> DATA </th>\n    </tr>\n    <tr>\n    <th rowspan="2"> Name </th> <th rowspan="2"> References </th> <th rowspan="2"> Hits </th> <th rowspan="2" > Misses </th> <th rowspan="2"> Miss rate </th>\n    <th rowspan="2"> Name </th> <th colspan="2"> References </th> <th colspan="2"> Hits </th> <th colspan="2"> Misses </th> <th colspan="2"> Miss rate </th>\n    </tr>\n    <tr>\n    <th>rd</th><th>wr</th><th>rd</th><th>wr</th><th>rd</th><th>wr</th><th>rd</th><th>wr</th>\n    </tr>\n    <tr>\n    <td rowspan="2"> I1 </td> <td rowspan="2"> {{= list[0][2]\n    response.write(\' </td> <td rowspan="2"> \', escape=False)\n    response.write(int(list[0][2].replace(",",""))-int(list[1][2].replace(",","")))\n    response.write(\' </td> <td rowspan="2"> \', escape=False)\n    response.write(list[1][2])\n    response.write(\' </td> <td rowspan="2"> \', escape=False)\n    response.write(list[3][2])\n    response.write(\' </td>\\n\\n\\t\\t<td rowspan="2"> D1 </td> <td colspan="2" style="text-align:center">\', escape=False)\n    response.write(a)\n    response.write(\' </td> <td colspan="2" style="text-align:center">\', escape=False)\n    response.write(b)\n    response.write(\' </td> <td colspan="2" style="text-align:center">\', escape=False)\n    response.write(c)\n    response.write(\' </td> <td colspan="2" style="text-align:center">\', escape=False)\n    response.write(d)\n    response.write(\' </td>\\n\\t</tr>\\n\\t<tr>\\n\\t\\t<td>\', escape=False)\n    response.write(a_1)\n    response.write(\' </td><td>\', escape=False)\n    response.write(a_2)\n    response.write(\' </td><td>\', escape=False)\n    response.write(b_1)\n    response.write(\' </td><td>\', escape=False)\n    response.write(b_2)\n    response.write(\' </td><td>\', escape=False)\n    response.write(c_1)\n    response.write(\' </td><td>\', escape=False)\n    response.write(c_2)\n    response.write(\' </td><td>\', escape=False)\n    response.write(d_1)\n    response.write(\' </td><td>\', escape=False)\n    response.write(d_2)\n    response.write(\' </td>\\n\\t<tr>\\n\\t\\t<td rowspan="2"> L2i </td> <td rowspan="2"> \', escape=False)\n    response.write(list[1][2])\n    response.write(\' </td> <td rowspan="2"> \', escape=False)\n    response.write(int(list[1][2].replace(",",""))-int(list[2][2].replace(",","")))\n    response.write(\' </td> <td rowspan="2"> \', escape=False)\n    response.write(list[2][2])\n    response.write(\' </td> <td rowspan="2"> \', escape=False)\n    response.write(str("%.2f"%((float(list[2][2].replace(",",""))/float(list[1][2].replace(",","")))*100))+"%")\n    response.write(\'</td>\\n\\t\\t<td rowspan="2"> L2d </td> <td colspan="2" style="text-align:center"> \', escape=False)\n    response.write(c)\n    response.write(\' </td> <td colspan="2" style="text-align:center">\', escape=False)\n    response.write(f)\n    response.write(\' </td><td colspan="2" style="text-align:center">\', escape=False)\n    response.write(g)\n    response.write(\'</td><td colspan="2" style="text-align:center">\', escape=False)\n    response.write(h)\n    response.write(\' </td>\\n\\t</tr>\\n\\t<tr>\\n\\t\\t<td> \', escape=False)\n    response.write(c_1)\n    response.write(\'</td> <td> \', escape=False)\n    response.write(c_2)\n    response.write(\' </td> <td>\', escape=False)\n    response.write(f_1)\n    response.write(\' </td> <td>\', escape=False)\n    response.write(f_2)\n    response.write(\' </td> <td>\', escape=False)\n    response.write(g_1)\n    response.write(\'</td> <td> \', escape=False)\n    response.write(g_2)\n    response.write(\' </td> <td>\', escape=False)\n    response.write(h_1)\n    response.write(\'</td> <td> \', escape=False)\n    response.write(h_2)\n    response.write(\' </td>\\n\\t</tr>\\n</table>\\n\\n\', escape=False)\n    pass\nresponse.write(\'\\n\', escape=False)\nif len(list) == 0 and flag==1 :\n    response.write(\'\\n<h3> There was some error in the Input provided . Please try again with a valid input </h3>\\n\', escape=False)\n    pass\nresponse.write(\'\\n</body>\\n</html>\\n\\n\', escape=False)\nresponse.write(\'\\n   </div>\\n   <div id="footer">\\n    <p>\\n     Copyright &copy; 2006 Sitename.com. Designed by\\n     <a href="http://www.freecsstemplates.org">\\n      Free CSS Templates\\n     </a>\\n    </p>\\n   </div>\\n  </div>\\n </body>\\n</html>\\n\', escape=False)'
p6
sS'snapshot'
p7
(dp8
S'exception'
p9
(dp10
S'__getslice__'
p11
S"<method-wrapper '__getslice__' of exceptions.SyntaxError object>"
p12
sS'text'
p13
S'\'    <table style="width:100%" border="1">\\n\''
p14
sS'__str__'
p15
S"<method-wrapper '__str__' of exceptions.SyntaxError object>"
p16
sS'__reduce__'
p17
S'<built-in method __reduce__ of exceptions.SyntaxError object>'
p18
sS'__dict__'
p19
S'{}'
p20
sS'__sizeof__'
p21
S'<built-in method __sizeof__ of exceptions.SyntaxError object>'
p22
sS'__init__'
p23
S"<method-wrapper '__init__' of exceptions.SyntaxError object>"
p24
sS'__setattr__'
p25
S"<method-wrapper '__setattr__' of exceptions.SyntaxError object>"
p26
sS'__reduce_ex__'
p27
S'<built-in method __reduce_ex__ of exceptions.SyntaxError object>'
p28
sS'__new__'
p29
S'<built-in method __new__ of type object>'
p30
sS'__format__'
p31
S'<built-in method __format__ of exceptions.SyntaxError object>'
p32
sS'__class__'
p33
S"<type 'exceptions.SyntaxError'>"
p34
sS'filename'
p35
S"'/home/shrenik/web2py/applications/vlab/views/default/index.html'"
p36
sS'lineno'
p37
S'76'
p38
sS'msg'
p39
S"'invalid syntax'"
p40
sS'__doc__'
p41
S"'Invalid syntax.'"
p42
sS'__getitem__'
p43
S"<method-wrapper '__getitem__' of exceptions.SyntaxError object>"
p44
sS'__setstate__'
p45
S'<built-in method __setstate__ of exceptions.SyntaxError object>'
p46
sS'__getattribute__'
p47
S"<method-wrapper '__getattribute__' of exceptions.SyntaxError object>"
p48
sS'print_file_and_line'
p49
S'None'
p50
sS'args'
p51
S'(\'invalid syntax\', (\'/home/shrenik/web2py/applications/vlab/views/default/index.html\', 76, 5, \'    <table style="width:100%" border="1">\\n\'))'
p52
sS'__subclasshook__'
p53
S'<built-in method __subclasshook__ of type object>'
p54
sS'offset'
p55
S'5'
sS'__unicode__'
p56
S'<built-in method __unicode__ of exceptions.SyntaxError object>'
p57
sS'__delattr__'
p58
S"<method-wrapper '__delattr__' of exceptions.SyntaxError object>"
p59
sS'__repr__'
p60
S"<method-wrapper '__repr__' of exceptions.SyntaxError object>"
p61
sS'__hash__'
p62
S"<method-wrapper '__hash__' of exceptions.SyntaxError object>"
p63
ssS'evalue'
p64
S'invalid syntax (index.html, line 76)'
p65
sS'request'
p66
(dp67
S'function'
p68
S"'index'"
p69
sS'body'
p70
S"<open file '<fdopen>', mode 'w+b'>"
p71
sS'wsgi'
p72
S"<Storage {'start_response': <function <lambda> a...ING': 'gzip,deflate', 'HTTP_KEEP_ALIVE': '115'}}>"
p73
sS'extension'
p74
S"'html'"
p75
sS'vars'
p76
S"<Storage {'i1_associativity': '2', 'd1_size': '6...ciativity': '2', '_formname': 'programs_create'}>"
p77
sS'cid'
p78
S'None'
p79
sS'url'
p80
S'<gluon.html.XML object>'
p81
sg51
S'[]'
p82
sS'controller'
p83
S"'default'"
p84
sS'cookies'
p85
S"<SimpleCookie: session_id_admin='127-0-0-1-f7c9f...'127-0-0-1-aeb537c5-7800-4550-9358-f0f4f45f265c'>"
p86
sS'application'
p87
S"'vlab'"
p88
sS'ajax'
p89
S'False'
p90
sS'client'
p91
S"'127.0.0.1'"
p92
sS'env'
p93
S"<Storage {'content_length': '6184', 'http_user_a...te', 'query_string': '', 'wsgi_run_once': False}>"
p94
sS'raw_args'
p95
S'None'
p96
sS'get_vars'
p97
S'<Storage {}>'
p98
sS'folder'
p99
S"'/home/shrenik/web2py/applications/vlab/'"
p100
sS'now'
p101
S'datetime.datetime(2010, 10, 21, 3, 58, 37, 659274)'
p102
sS'post_vars'
p103
S"<Storage {'i1_associativity': '2', 'd1_size': '6...ciativity': '2', '_formname': 'programs_create'}>"
p104
ssS'frames'
p105
(lp106
(dp107
S'file'
p108
S'/home/shrenik/web2py/gluon/restricted.py'
p109
sS'dump'
p110
(dp111
S'code'
p112
S'\'response.write(\\\'<html>\\\\n<head>\\\\n\\\\t<script type="...v>\\\\n  </div>\\\\n </body>\\\\n</html>\\\\n\\\', escape=False)\''
p113
sS'layer'
p114
S"'/home/shrenik/web2py/applications/vlab/views/default/index.html'"
p115
sS'global compile2'
p116
S'<function compile2>'
p117
sS'ccode'
p118
S'undefined'
p119
ssS'lnum'
p120
I186
sS'lines'
p121
(dp122
I181
S''
sI182
S'    try:'
p123
sI183
S'        if type(code) == types.CodeType:'
p124
sI184
S'            ccode = code'
p125
sI185
S'        else:'
p126
sI186
S'            ccode = compile2(code,layer)'
p127
sI187
S''
sI188
S'        exec ccode in environment'
p128
sI189
S'    except HTTP:'
p129
sI190
S'        raise'
p130
ssS'call'
p131
S'(code=\'response.write(\\\'<html>\\\\n<head>\\\\n\\\\t<script type="...v>\\\\n  </div>\\\\n </body>\\\\n</html>\\\\n\\\', escape=False)\', environment={\'A\': <class \'gluon.html.A\'>, \'Auth\': <class \'gluon.tools.Auth\'>, \'B\': <class \'gluon.html.B\'>, \'BEAUTIFY\': <class \'gluon.html.BEAUTIFY\'>, \'BODY\': <class \'gluon.html.BODY\'>, \'BR\': <class \'gluon.html.BR\'>, \'CENTER\': <class \'gluon.html.CENTER\'>, \'CLEANUP\': <class \'gluon.validators.CLEANUP\'>, \'CODE\': <class \'gluon.html.CODE\'>, \'CRYPT\': <class \'gluon.validators.CRYPT\'>, ...}, layer=\'/home/shrenik/web2py/applications/vlab/views/default/index.html\')'
p132
sS'func'
p133
S'restricted'
p134
sa(dp135
g108
S'/home/shrenik/web2py/gluon/restricted.py'
p136
sg110
(dp137
S'builtincompile'
p138
S'<built-in function compile>'
p139
sS'code'
p140
S'\'response.write(\\\'<html>\\\\n<head>\\\\n\\\\t<script type="...v>\\\\n  </div>\\\\n </body>\\\\n</html>\\\\n\\\', escape=False)\''
p141
sS'code.rstrip'
p142
S'<built-in method rstrip of str object>'
p143
sS').replace'
p144
g119
sS'layer'
p145
S"'/home/shrenik/web2py/applications/vlab/views/default/index.html'"
p146
ssg120
I173
sg121
(dp147
I168
S''
sI169
S'def compile2(code,layer):'
p148
sI170
S'    """'
p149
sI171
S"    The +'\\n' is necessary else compile fails when code ends in a comment."
p150
sI172
S'    """'
p151
sI173
S"    return compile(code.rstrip().replace('\\r\\n','\\n')+'\\n', layer, 'exec')"
p152
sI174
S''
sI175
S"def restricted(code, environment={}, layer='Unknown'):"
p153
sI176
S'    """'
p154
sI177
S'    runs code in environment and returns the output. if an exception occurs'
p155
ssg131
S'(code=\'response.write(\\\'<html>\\\\n<head>\\\\n\\\\t<script type="...v>\\\\n  </div>\\\\n </body>\\\\n</html>\\\\n\\\', escape=False)\', layer=\'/home/shrenik/web2py/applications/vlab/views/default/index.html\')'
p156
sg133
S'compile2'
p157
sasS'pyver'
p158
S'Python 2.6.6: /usr/bin/python'
p159
sS'session'
p160
(dp161
S'auth'
p162
S'None'
p163
sS'_formkey[programs_create]'
p164
S"'c144139c-61d7-4743-8832-bd97897d8d45'"
p165
ssS'etype'
p166
S"<type 'exceptions.SyntaxError'>"
p167
sS'date'
p168
S'Thu Oct 21 03:58:38 2010'
p169
sS'response'
p170
(dp171
S'status'
p172
S'200'
p173
sg70
S'<cStringIO.StringO object>'
p174
sg85
S"<SimpleCookie: session_id_vlab='127-0-0-1-aeb537c5-7800-4550-9358-f0f4f45f265c'>"
p175
sS'_vars'
p176
S"{'flag': 1, 'form': <gluon.sqlhtml.SQLFORM object>, 'list': [('10453', 'I   refs', '298,932'), ('10453', 'I1  misses', '1,075'), ('10453', 'L2i misses', '1,037'), ('10453', 'I1  miss rate', '0.35%'), ('10453', 'L2i miss rate', '0.34%'), ('10453', 'D   refs', '151,163  (102,760 rd   + 48,403 wr)'), ('10453', 'D1  misses', '2,258  (  1,930 rd   +    328 wr)'), ('10453', 'L2d misses', '1,787  (  1,505 rd   +    282 wr)'), ('10453', 'D1  miss rate', '1.4% (    1.8%     +    0.6%  )'), ('10453', 'L2d miss rate', '1.1% (    1.4%     +    0.5%  )'), ('10453', 'L2 refs', '3,333  (  3,005 rd   +    328 wr)'), ('10453', 'L2 misses', '2,824  (  2,542 rd   +    282 wr)'), ('10453', 'L2 miss rate', '0.6% (    0.6%     +    0.5%  )')], 'message': <lazyT 'Hello World'>, 'pid': ['10453']}"
p177
sS'title'
p178
S"'vlab'"
p179
sS'session_file'
p180
S"<open file '/home/shrenik/web2py/applications/vl...eb537c5-7800-4550-9358-f0f4f45f265c', mode 'rb+'>"
p181
sS'flash'
p182
S"<lazyT 'Welcome to web2py'>"
p183
sS'_custom_rollback'
p184
S'None'
p185
sS'session_id'
p186
S"'127-0-0-1-aeb537c5-7800-4550-9358-f0f4f45f265c'"
p187
sS'headers'
p188
S"<Storage {'Expires': 'Wed, 20 Oct 2010 22:28:37 ...he, must-revalidate, post-check=0, pre-check=0'}>"
p189
sS'meta'
p190
S"<Storage {'keywords': 'bla bla bla', 'description': 'describe your app', 'author': 'you'}>"
p191
sS'session_filename'
p192
S"'/home/shrenik/web2py/applications/vlab/sessions/127-0-0-1-aeb537c5-7800-4550-9358-f0f4f45f265c'"
p193
sS'postprocessing'
p194
S'[]'
p195
sS'menu'
p196
S"[(<lazyT 'Index'>, False, <gluon.html.XML object>, []), ('Change Layout', False, <gluon.html.XML object>)]"
p197
sS'_view_environment'
p198
S"{'A': <class 'gluon.html.A'>, 'Auth': <class 'gluon.tools.Auth'>, 'B': <class 'gluon.html.B'>, 'BEAUTIFY': <class 'gluon.html.BEAUTIFY'>, 'BODY': <class 'gluon.html.BODY'>, 'BR': <class 'gluon.html.BR'>, 'CENTER': <class 'gluon.html.CENTER'>, 'CLEANUP': <class 'gluon.validators.CLEANUP'>, 'CODE': <class 'gluon.html.CODE'>, 'CRYPT': <class 'gluon.validators.CRYPT'>, ...}"
p199
sS'subtitle'
p200
S"<lazyT 'customize me!'>"
p201
sS'session_id_name'
p202
S"'session_id_vlab'"
p203
sS'_custom_commit'
p204
S'None'
p205
sS'_caller'
p206
S'<function <lambda>>'
p207
sS'files'
p208
S'[]'
p209
sS'view'
p210
S"'default/index.html'"
p211
ssS'locals'
p212
(dp213
g3
S"'/home/shrenik/web2py/applications/vlab/views/default/index.html'"
p214
sg5
S'\'response.write(\\\'<html>\\\\n<head>\\\\n\\\\t<script type="...v>\\\\n  </div>\\\\n </body>\\\\n</html>\\\\n\\\', escape=False)\''
p215
sssS'traceback'
p216
S'Traceback (most recent call last):\n  File "/home/shrenik/web2py/gluon/restricted.py", line 186, in restricted\n    ccode = compile2(code,layer)\n  File "/home/shrenik/web2py/gluon/restricted.py", line 173, in compile2\n    return compile(code.rstrip().replace(\'\\r\\n\',\'\\n\')+\'\\n\', layer, \'exec\')\n  File "/home/shrenik/web2py/applications/vlab/views/default/index.html", line 76\n    <table style="width:100%" border="1">\n    ^\nSyntaxError: invalid syntax\n'
p217
s.