(dp1
S'output'
p2
S''
sS'layer'
p3
S'/home/shrenik/web2py/applications/vlab/views/default/index.html'
p4
sS'code'
p5
S'response.write(\'<html>\\n<head>\\n\\t<script type="text/javascript">\\n\\t\\tfunction startTime()\\n\\t\\t{\\n\\t\\tvar today=new Date();\\n\\t\\tvar h=today.getHours();\\n\\t\\tvar m=today.getMinutes();\\n\\t\\tvar s=today.getSeconds();\\n\\t\\t// add a zero in front of numbers<10\\n\\t\\tm=checkTime(m);\\n\\t\\ts=checkTime(s);\\n\\t\\tdocument.getElementById(\\\'txt\\\').innerHTML=h+":"+m+":"+s;\\n\\t\\tt=setTimeout(\\\'startTime()\\\',500);\\n\\t\\t}\\n\\n\\t\\tfunction checkTime(i)\\n\\t\\t{\\n\\t\\tif (i<10)\\n\\t\\t  {\\n\\t\\t    i="0" + i;\\n\\t\\t      }\\n\\t\\t      return i;\\n\\t\\t      }\\n      </script>\\n</head>\\n<body onload="startTime()"> \\n\\n\', escape=False)\nresponse.write(\'<!DOCTYPE html PUBLIC "-//W3C//DTD XHTML 1.0 Strict//EN" "http://www.w3.org/TR/xhtml1/DTD/xhtml1-strict.dtd">\\n<!--\\n\\tDesign by Free CSS Templates\\n\\thttp://www.freecsstemplates.org\\n\\tReleased for free under a Creative Commons Attribution 2.5 License\\n-->\\n<html xmlns="http://www.w3.org/1999/xhtml">\\n <head>\\n  <title>\\n   \', escape=False)\nresponse.write(response.title or request.application)\nresponse.write(\'\\n  </title>\\n  \', escape=False)\nresponse.files.append(URL(request.application,\'static\',\'plugin_layouts/layouts/Civilized/default.css\'))\nresponse.write(\'\\n\', escape=False)\nresponse.files.insert(0,URL(r=request,c=\'static\',f=\'jquery.js\'))\nresponse.files.insert(1,URL(r=request,c=\'static\',f=\'calendar.css\'))\nresponse.files.insert(2,URL(r=request,c=\'static\',f=\'calendar.js\'))\nfor _item in response.meta or []:\n    response.write(\'\\n     <meta name="\', escape=False)\n    response.write(_item)\n    response.write(\'" content="\', escape=False)\n    response.write(response.meta[_item])\n    response.write(\'" />\', escape=False)\n    pass\nfor _k,_file in enumerate(response.files or []):\n    if _file in response.files[:_k]:\n        continue\n    elif _file.lower().endswith(\'.css\'):\n        response.write(\'\\n     <link href="\', escape=False)\n        response.write(_file)\n        response.write(\'" rel="stylesheet" type="text/css" />\', escape=False)\n    elif _file.lower().endswith(\'.js\'):\n        response.write(\'\\n     <script src="\', escape=False)\n        response.write(_file)\n        response.write(\'" type="text/javascript"></script>\', escape=False)\n        pass\n    pass\nresponse.write(\'\\n<script type="text/javascript"><!--\\nfunction popup(url) {\\n  newwindow=window.open(url,\\\'name\\\',\\\'height=400,width=600\\\');\\n  if (window.focus) newwindow.focus();\\n  return false;\\n}\\nfunction collapse(id) { jQuery(\\\'#\\\'+id).slideToggle(); }\\nfunction fade(id,value) { if(value>0) jQuery(\\\'#\\\'+id).hide().fadeIn(\\\'slow\\\'); else jQuery(\\\'#\\\'+id).show().fadeOut(\\\'slow\\\'); }\\nfunction ajax(u,s,t) {\\n    query = \\\'\\\';\\n    if (typeof s == "string") {\\n        d = jQuery(s).serialize();\\n        if(d){ query = d; }\\n    } else {\\n        pcs = [];\\n        for(i=0; i<s.length; i++) {\\n            q = jQuery("#"+s[i]).serialize();\\n            if(q){pcs.push(q);}\\n        }\\n        if (pcs.length>0){query = pcs.join("&");}\\n    }\\n    jQuery.ajax({type: "POST", url: u, data: query, success: function(msg) { if(t) { if(t==\\\':eval\\\') eval(msg); else jQuery("#" + t).html(msg); } } }); \\n}\\nString.prototype.reverse = function () { return this.split(\\\'\\\').reverse().join(\\\'\\\');};\\nfunction web2py_ajax_init() {\\n  jQuery(\\\'.hidden\\\').hide();\\n  jQuery(\\\'.error\\\').hide().slideDown(\\\'slow\\\');\\n  jQuery(\\\'.flash\\\').click(function() { jQuery(this).fadeOut(\\\'slow\\\'); return false; });\\n  jQuery(\\\'input.integer\\\').keyup(function(){this.value=this.value.reverse().replace(/[^0-9\\\\-]|\\\\-(?=.)/g,\\\'\\\').reverse();});\\n  jQuery(\\\'input.double\\\').keyup(function(){this.value=this.value.reverse().replace(/[^0-9\\\\-\\\\.]|[\\\\-](?=.)|[\\\\.](?=[0-9]*[\\\\.])/g,\\\'\\\').reverse();});\\n  jQuery("input[type=\\\'checkbox\\\'].delete").each(function(){jQuery(this).click(function() { if(this.checked) if(!confirm("\', escape=False)\nresponse.write(T(\'Sure you want to delete this object?\'))\nresponse.write(\'")) this.checked=false; });});\\n  try {jQuery("input.date").focus( function() {Calendar.setup({\\n     inputField:this.id, ifFormat:"\', escape=False)\nresponse.write(T(\'%Y-%m-%d\'))\nresponse.write(\'", showsTime:false\\n  }); }); } catch(e) {};\\n  try { jQuery("input.datetime").focus( function() {Calendar.setup({\\n     inputField:this.id, ifFormat:"\', escape=False)\nresponse.write(T(\'%Y-%m-%d %H:%M:%S\'))\nresponse.write(\'", showsTime: true,timeFormat: "24"\\n  }); }); } catch(e) {};\\n  try { jQuery("input.time").clockpick({\\n      starthour:0, endhour:23, showminutes:true, military:true\\n  }); } catch(e) {};\\n};\\njQuery(document).ready(function(){\\n   jQuery(\\\'.flash\\\').hide();\\n   if(jQuery(\\\'.flash\\\').html()!=\\\'\\\') jQuery(\\\'.flash\\\').slideDown(\\\'slow\\\');\\n   web2py_ajax_init();});\\n\\nfunction web2py_trap_form(action,target) {\\n   jQuery(\\\'#\\\'+target+\\\' form\\\').each(function(i){\\n      var form=jQuery(this);\\n      if(!form.hasClass(\\\'no_trap\\\'))\\n        form.submit(function(obj){\\n         jQuery(\\\'.flash\\\').hide().html(\\\'\\\');\\n         web2py_ajax_page(\\\'post\\\',action,form.serialize(),target);\\n         return false;\\n      });\\n   });\\n}\\n\\nfunction web2py_ajax_page(method,action,data,target) {\\n  jQuery.ajax({\\\'type\\\':method,\\\'url\\\':action,\\\'data\\\':data,\\n    \\\'beforeSend\\\':function(xhr){\\n      xhr.setRequestHeader(\\\'web2py-component-location\\\',document.location);\\n      xhr.setRequestHeader(\\\'web2py-component-element\\\',target);},\\n    \\\'complete\\\':function(xhr,text){\\n      command=xhr.getResponseHeader(\\\'web2py-component-command\\\');\\n      if(command) eval(command);\\n      flash=xhr.getResponseHeader(\\\'web2py-component-flash\\\');\\n      if(flash) jQuery(\\\'.flash\\\').html(flash).slideDown();\\n      },\\n    \\\'success\\\': function(text) {\\n      jQuery(\\\'#\\\'+target).html(text);\\n      web2py_trap_form(action,target);\\n      web2py_ajax_init();\\n      }\\n    });\\n}\\nfunction web2py_component(action,target) {\\n    jQuery(document).ready(function(){ web2py_ajax_page(\\\'get\\\',action,null,target); });\\n}\\n//--></script>\\n\', escape=False)\nresponse.write(\'\\n  <style>\\n   .flash {\\n    z-index: 2;\\n    position: absolute;\\n    top: 0px;\\n    right: 20%;\\n    width: 60%;\\n    height: 50px;\\n    opacity: 0.75;\\n    margin: 0 auto;\\n    text-align: center;\\n    clear: both;\\n    border: 1px #000000 solid;\\n    color: black;\\n    font-size: 12pt;\\n    padding: 100px 10px 10px 10px;\\n    cursor: pointer;\\n    background: white;\\n\\n}\\ndiv.error {\\n    background-color: red;\\n    color: white;\\n    padding: 3px;\\n}\\n  </style>\\n </head>\\n <body>\\n  <div id="outer">\\n   <div id="header">\\n    <h1>\\n     \', escape=False)\nresponse.write(response.title or request.application)\nresponse.write(\'\\n    </h1>\\n    <h2>\\n     \', escape=False)\nresponse.write(response.subtitle or \'=response.subtitle\')\nresponse.write(\'\\n    </h2>\\n   </div>\\n   <div id="menu">\\n    \', escape=False)\nresponse.write(MENU(response.menu))\nresponse.write(\'\\n   </div>\\n   <div id="content">\\n    <div class="flash">\', escape=False)\nresponse.write(response.flash or \'\')\nresponse.write(\'</div>\\n    \', escape=False)\nresponse.write(\'\\n<h4 id="txt" align="right"></h4>\\n\', escape=False)\nresponse.write(form)\nresponse.write(\'\\n\', escape=False)\nif len(list) > 0:\n    response.write(\'\\n<table>\\n\\t<tr width>\\n\\t\\t<th width="20%"> pid </th>\\n\\t\\t<th width="40%"> parameter </th>\\n\\t\\t<th width="40%"> value</th>\\n\\t</tr>\\n\\t\', escape=False)\n    for l in list:\n        response.write(\'\\n\\t<tr>\\n\\t\\t<td> \', escape=False)\n        response.write(l[0])\n        response.write(\' </td>\\n\\t\\t<td> \', escape=False)\n        response.write(l[1])\n        response.write(\' </td>\\n\\t\\t<td> \', escape=False)\n        response.write(l[2])\n        response.write(\' </td>\\n\\t</tr>\\n\\t\', escape=False)\n        pass\n    response.write(\'\\n</table>\\n\', escape=False)\n    import re\n    response.write(\'\\n\', escape=False)\n    regex="([^\\(]+)\\(\\s*(\\S+)[^\\+]*\\+\\s*(\\S+).*" ; t1= re.findall(regex,list[5][2]) ; a=t1[0][0] ; a_1=t1[0][1] ; a_2 = t1[0][2]\n    response.write(\'\\n\', escape=False)\n    t2= re.findall(regex,list[6][2]) ; c=t2[0][0] ; c_1=t2[0][1] ; c_2 = t2[0][2] ; e=c ; e_1 = c_1; e_2=c_2\n    response.write(\'\\n\', escape=False)\n    t3= re.findall(regex,list[8][2]) ; d=t3[0][0] ; d_1=t3[0][1] ; d_2 = t3[0][2]\n    response.write(\'\\n\', escape=False)\n    t4= re.findall(regex,list[7][2]) ; g=t4[0][0] ; g_1=t4[0][1] ; g_2 = t4[0][2]\n    response.write(\'\\n\', escape=False)\n    b= int(a.replace(",",""))-int(c.replace(",","")) ; b_1= int(a_1.replace(",",""))-int(c_1.replace(",","")) ; b_2= int(a_2.replace(",",""))-int(c_2.replace(",",""))\n    response.write(\'\\n\', escape=False)\n    f= int(e.replace(",",""))-int(g.replace(",","")) ; f_1= int(e_1.replace(",",""))-int(g_1.replace(",","")) ; f_2= int(e_2.replace(",",""))-int(g_2.replac    e(",",""))\n    response.write(\'\\n<table style="width:100%" border="1">\\n\\t<tr>\\n\\t\\t<th colspan="5" style="text-align:center"> INSTRUCTION </th>\\n\\t\\t<th colspan="9" style="text-align:center"> DATA </th>\\n\\t</tr>\\n\\t<tr>\\n\\t\\t<th rowspan="2"> Name </th> <th rowspan="2"> References </th> <th rowspan="2"> Hits </th> <th rowspan="2" > Misses </th> <th rowspan="2"> Miss rate </th>\\n\\t\\t<th rowspan="2"> Name </th> <th colspan="2"> References </th> <th colspan="2"> Hits </th> <th colspan="2"> Misses </th> <th colspan="2"> Miss rate </th>\\n\\t</tr>\\n\\t<tr>\\n\\t\\t<th>rd</th><th>wr</th><th>rd</th><th>wr</th><th>rd</th><th>wr</th><th>rd</th><th>wr</th>\\n\\t</tr>\\n\\n\\t<tr>\\n\\t\\t<td rowspan="2"> I1 </td> <td rowspan="2"> \', escape=False)\n    response.write(list[0][2])\n    response.write(\' </td> <td rowspan="2"> \', escape=False)\n    response.write(int(list[0][2].replace(",",""))-int(list[1][2].replace(",","")))\n    response.write(\' </td> <td rowspan="2"> \', escape=False)\n    response.write(list[1][2])\n    response.write(\' </td> <td rowspan="2"> \', escape=False)\n    response.write(list[3][2])\n    response.write(\' </td>\\n\\n\\t\\t<td rowspan="2"> D1 </td> <td colspan="2" style="text-align:center">\', escape=False)\n    response.write(a)\n    response.write(\' </td> <td colspan="2" style="text-align:center">\', escape=False)\n    response.write(b)\n    response.write(\' </td> <td colspan="2" style="text-align:center">\', escape=False)\n    response.write(c)\n    response.write(\' </td> <td colspan="2" style="text-align:center">\', escape=False)\n    response.write(d)\n    response.write(\' </td>\\n\\t</tr>\\n\\t<tr>\\n\\t\\t<td>\', escape=False)\n    response.write(a_1)\n    response.write(\' </td><td>\', escape=False)\n    response.write(a_2)\n    response.write(\' </td><td>\', escape=False)\n    response.write(b_1)\n    response.write(\' </td><td>\', escape=False)\n    response.write(b_2)\n    response.write(\' </td><td>\', escape=False)\n    response.write(c_1)\n    response.write(\' </td><td>\', escape=False)\n    response.write(c_2)\n    response.write(\' </td><td>\', escape=False)\n    response.write(d_1)\n    response.write(\' </td><td>\', escape=False)\n    response.write(d_2)\n    response.write(\' </td>\\n\\t<tr>\\n\\t\\t<td rowspan="2"> L2i </td> <td rowspan="2"> \', escape=False)\n    response.write(list[1][2])\n    response.write(\' </td> <td rowspan="2"> \', escape=False)\n    response.write(int(list[1][2].replace(",",""))-int(list[2][2].replace(",","")))\n    response.write(\' </td> <td rowspan="2"> \', escape=False)\n    response.write(list[2][2])\n    response.write(\' </td> <td rowspan="2"> \', escape=False)\n    response.write(str("%.2f"%((float(list[2][2].replace(",",""))/float(list[1][2].replace(",","")))*100))+"%")\n    response.write(\'</td>\\n\\t\\t<td rowspan="2"> L2d </td> <td colspan="2" style="text-align:center"> \', escape=False)\n    response.write(c)\n    response.write(\' </td> <td colspan="2" style="text-align:center">\', escape=False)\n    response.write(f)\n    response.write(\' </td><td colspan="2" style="text-align:center">\', escape=False)\n    response.write(g)\n    response.write(\'</td><td colspan="2" style="text-align:center"> h </td>\\n\\t</tr>\\n\\t<tr>\\n\\t\\t<td> \', escape=False)\n    response.write(c_1)\n    response.write(\'</td> <td> \', escape=False)\n    response.write(c_2)\n    response.write(\' </td> <td>\', escape=False)\n    response.write(f_1)\n    response.write(\' </td> <td>\', escape=False)\n    response.write(f_2)\n    response.write(\' </td> <td>\', escape=False)\n    response.write(g_1)\n    response.write(\'</td> <td> \', escape=False)\n    response.write(g_2)\n    response.write(\' </td> <td> h_1</td> <td> h_2 </td>\\n\\t</tr>\\n</table>\\n\\n\', escape=False)\n    pass\nresponse.write(\'\\n\', escape=False)\nif len(list) == 0 and flag==1 :\n    response.write(\'\\n<h3> There was some error in the Input provided . Please try again with a valid input </h3>\\n\', escape=False)\n    pass\nresponse.write(\'\\n</body>\\n</html>\\n\\n\', escape=False)\nresponse.write(\'\\n   </div>\\n   <div id="footer">\\n    <p>\\n     Copyright &copy; 2006 Sitename.com. Designed by\\n     <a href="http://www.freecsstemplates.org">\\n      Free CSS Templates\\n     </a>\\n    </p>\\n   </div>\\n  </div>\\n </body>\\n</html>\\n\', escape=False)'
p6
sS'snapshot'
p7
(dp8
S'exception'
p9
(dp10
S'__getslice__'
p11
S"<method-wrapper '__getslice__' of exceptions.SyntaxError object>"
p12
sS'text'
p13
S'\'    f= int(e.replace(",",""))-int(g.replace(",",..._2.replace(",",""))-int(g_2.replac    e(",",""))\\n\''
p14
sS'__str__'
p15
S"<method-wrapper '__str__' of exceptions.SyntaxError object>"
p16
sS'__reduce__'
p17
S'<built-in method __reduce__ of exceptions.SyntaxError object>'
p18
sS'__dict__'
p19
S'{}'
p20
sS'__sizeof__'
p21
S'<built-in method __sizeof__ of exceptions.SyntaxError object>'
p22
sS'__init__'
p23
S"<method-wrapper '__init__' of exceptions.SyntaxError object>"
p24
sS'__setattr__'
p25
S"<method-wrapper '__setattr__' of exceptions.SyntaxError object>"
p26
sS'__reduce_ex__'
p27
S'<built-in method __reduce_ex__ of exceptions.SyntaxError object>'
p28
sS'__new__'
p29
S'<built-in method __new__ of type object>'
p30
sS'__format__'
p31
S'<built-in method __format__ of exceptions.SyntaxError object>'
p32
sS'__class__'
p33
S"<type 'exceptions.SyntaxError'>"
p34
sS'filename'
p35
S"'/home/shrenik/web2py/applications/vlab/views/default/index.html'"
p36
sS'lineno'
p37
S'73'
p38
sS'msg'
p39
S"'invalid syntax'"
p40
sS'__doc__'
p41
S"'Invalid syntax.'"
p42
sS'__getitem__'
p43
S"<method-wrapper '__getitem__' of exceptions.SyntaxError object>"
p44
sS'__setstate__'
p45
S'<built-in method __setstate__ of exceptions.SyntaxError object>'
p46
sS'__getattribute__'
p47
S"<method-wrapper '__getattribute__' of exceptions.SyntaxError object>"
p48
sS'print_file_and_line'
p49
S'None'
p50
sS'args'
p51
S'(\'invalid syntax\', (\'/home/shrenik/web2py/applications/vlab/views/default/index.html\', 73, 161, \'    f= int(e.replace(",",""))-int(g.replace(",",..._2.replace(",",""))-int(g_2.replac    e(",",""))\\n\'))'
p52
sS'__subclasshook__'
p53
S'<built-in method __subclasshook__ of type object>'
p54
sS'offset'
p55
S'161'
p56
sS'__unicode__'
p57
S'<built-in method __unicode__ of exceptions.SyntaxError object>'
p58
sS'__delattr__'
p59
S"<method-wrapper '__delattr__' of exceptions.SyntaxError object>"
p60
sS'__repr__'
p61
S"<method-wrapper '__repr__' of exceptions.SyntaxError object>"
p62
sS'__hash__'
p63
S"<method-wrapper '__hash__' of exceptions.SyntaxError object>"
p64
ssS'evalue'
p65
S'invalid syntax (index.html, line 73)'
p66
sS'request'
p67
(dp68
S'function'
p69
S"'index'"
p70
sS'body'
p71
S"<open file '<fdopen>', mode 'w+b'>"
p72
sS'wsgi'
p73
S"<Storage {'start_response': <function <lambda> a...ING': 'gzip,deflate', 'HTTP_KEEP_ALIVE': '115'}}>"
p74
sS'extension'
p75
S"'html'"
p76
sS'vars'
p77
S"<Storage {'i1_associativity': '2', 'd1_size': '6...ciativity': '2', '_formname': 'programs_create'}>"
p78
sS'cid'
p79
S'None'
p80
sS'url'
p81
S'<gluon.html.XML object>'
p82
sg51
S'[]'
p83
sS'controller'
p84
S"'default'"
p85
sS'cookies'
p86
S"<SimpleCookie: session_id_admin='127-0-0-1-4555d...'127-0-0-1-aeb537c5-7800-4550-9358-f0f4f45f265c'>"
p87
sS'application'
p88
S"'vlab'"
p89
sS'ajax'
p90
S'False'
p91
sS'client'
p92
S"'127.0.0.1'"
p93
sS'env'
p94
S"<Storage {'content_length': '6184', 'http_user_a...te', 'query_string': '', 'wsgi_run_once': False}>"
p95
sS'raw_args'
p96
S'None'
p97
sS'get_vars'
p98
S'<Storage {}>'
p99
sS'folder'
p100
S"'/home/shrenik/web2py/applications/vlab/'"
p101
sS'now'
p102
S'datetime.datetime(2010, 10, 21, 3, 53, 37, 144726)'
p103
sS'post_vars'
p104
S"<Storage {'i1_associativity': '2', 'd1_size': '6...ciativity': '2', '_formname': 'programs_create'}>"
p105
ssS'frames'
p106
(lp107
(dp108
S'file'
p109
S'/home/shrenik/web2py/gluon/restricted.py'
p110
sS'dump'
p111
(dp112
S'code'
p113
S'\'response.write(\\\'<html>\\\\n<head>\\\\n\\\\t<script type="...v>\\\\n  </div>\\\\n </body>\\\\n</html>\\\\n\\\', escape=False)\''
p114
sS'layer'
p115
S"'/home/shrenik/web2py/applications/vlab/views/default/index.html'"
p116
sS'global compile2'
p117
S'<function compile2>'
p118
sS'ccode'
p119
S'undefined'
p120
ssS'lnum'
p121
I186
sS'lines'
p122
(dp123
I181
S''
sI182
S'    try:'
p124
sI183
S'        if type(code) == types.CodeType:'
p125
sI184
S'            ccode = code'
p126
sI185
S'        else:'
p127
sI186
S'            ccode = compile2(code,layer)'
p128
sI187
S''
sI188
S'        exec ccode in environment'
p129
sI189
S'    except HTTP:'
p130
sI190
S'        raise'
p131
ssS'call'
p132
S'(code=\'response.write(\\\'<html>\\\\n<head>\\\\n\\\\t<script type="...v>\\\\n  </div>\\\\n </body>\\\\n</html>\\\\n\\\', escape=False)\', environment={\'A\': <class \'gluon.html.A\'>, \'Auth\': <class \'gluon.tools.Auth\'>, \'B\': <class \'gluon.html.B\'>, \'BEAUTIFY\': <class \'gluon.html.BEAUTIFY\'>, \'BODY\': <class \'gluon.html.BODY\'>, \'BR\': <class \'gluon.html.BR\'>, \'CENTER\': <class \'gluon.html.CENTER\'>, \'CLEANUP\': <class \'gluon.validators.CLEANUP\'>, \'CODE\': <class \'gluon.html.CODE\'>, \'CRYPT\': <class \'gluon.validators.CRYPT\'>, ...}, layer=\'/home/shrenik/web2py/applications/vlab/views/default/index.html\')'
p133
sS'func'
p134
S'restricted'
p135
sa(dp136
g109
S'/home/shrenik/web2py/gluon/restricted.py'
p137
sg111
(dp138
S'builtincompile'
p139
S'<built-in function compile>'
p140
sS'code'
p141
S'\'response.write(\\\'<html>\\\\n<head>\\\\n\\\\t<script type="...v>\\\\n  </div>\\\\n </body>\\\\n</html>\\\\n\\\', escape=False)\''
p142
sS'code.rstrip'
p143
S'<built-in method rstrip of str object>'
p144
sS').replace'
p145
g120
sS'layer'
p146
S"'/home/shrenik/web2py/applications/vlab/views/default/index.html'"
p147
ssg121
I173
sg122
(dp148
I168
S''
sI169
S'def compile2(code,layer):'
p149
sI170
S'    """'
p150
sI171
S"    The +'\\n' is necessary else compile fails when code ends in a comment."
p151
sI172
S'    """'
p152
sI173
S"    return compile(code.rstrip().replace('\\r\\n','\\n')+'\\n', layer, 'exec')"
p153
sI174
S''
sI175
S"def restricted(code, environment={}, layer='Unknown'):"
p154
sI176
S'    """'
p155
sI177
S'    runs code in environment and returns the output. if an exception occurs'
p156
ssg132
S'(code=\'response.write(\\\'<html>\\\\n<head>\\\\n\\\\t<script type="...v>\\\\n  </div>\\\\n </body>\\\\n</html>\\\\n\\\', escape=False)\', layer=\'/home/shrenik/web2py/applications/vlab/views/default/index.html\')'
p157
sg134
S'compile2'
p158
sasS'pyver'
p159
S'Python 2.6.6: /usr/bin/python'
p160
sS'session'
p161
(dp162
S'auth'
p163
S'None'
p164
sS'_formkey[programs_create]'
p165
S"'6c47e725-3ac0-4f6f-b287-d7b8023554b2'"
p166
ssS'etype'
p167
S"<type 'exceptions.SyntaxError'>"
p168
sS'date'
p169
S'Thu Oct 21 03:53:37 2010'
p170
sS'response'
p171
(dp172
S'status'
p173
S'200'
p174
sg71
S'<cStringIO.StringO object>'
p175
sg86
S"<SimpleCookie: session_id_vlab='127-0-0-1-aeb537c5-7800-4550-9358-f0f4f45f265c'>"
p176
sS'_vars'
p177
S"{'flag': 1, 'form': <gluon.sqlhtml.SQLFORM object>, 'list': [('10407', 'I   refs', '298,932'), ('10407', 'I1  misses', '1,075'), ('10407', 'L2i misses', '1,037'), ('10407', 'I1  miss rate', '0.35%'), ('10407', 'L2i miss rate', '0.34%'), ('10407', 'D   refs', '151,163  (102,760 rd   + 48,403 wr)'), ('10407', 'D1  misses', '2,258  (  1,930 rd   +    328 wr)'), ('10407', 'L2d misses', '1,788  (  1,505 rd   +    283 wr)'), ('10407', 'D1  miss rate', '1.4% (    1.8%     +    0.6%  )'), ('10407', 'L2d miss rate', '1.1% (    1.4%     +    0.5%  )'), ('10407', 'L2 refs', '3,333  (  3,005 rd   +    328 wr)'), ('10407', 'L2 misses', '2,825  (  2,542 rd   +    283 wr)'), ('10407', 'L2 miss rate', '0.6% (    0.6%     +    0.5%  )')], 'message': <lazyT 'Hello World'>, 'pid': ['10407']}"
p178
sS'title'
p179
S"'vlab'"
p180
sS'session_file'
p181
S"<open file '/home/shrenik/web2py/applications/vl...eb537c5-7800-4550-9358-f0f4f45f265c', mode 'rb+'>"
p182
sS'flash'
p183
S"<lazyT 'Welcome to web2py'>"
p184
sS'_custom_rollback'
p185
S'None'
p186
sS'session_id'
p187
S"'127-0-0-1-aeb537c5-7800-4550-9358-f0f4f45f265c'"
p188
sS'headers'
p189
S"<Storage {'Expires': 'Wed, 20 Oct 2010 22:23:37 ...he, must-revalidate, post-check=0, pre-check=0'}>"
p190
sS'meta'
p191
S"<Storage {'keywords': 'bla bla bla', 'description': 'describe your app', 'author': 'you'}>"
p192
sS'session_filename'
p193
S"'/home/shrenik/web2py/applications/vlab/sessions/127-0-0-1-aeb537c5-7800-4550-9358-f0f4f45f265c'"
p194
sS'postprocessing'
p195
S'[]'
p196
sS'menu'
p197
S"[(<lazyT 'Index'>, False, <gluon.html.XML object>, []), ('Change Layout', False, <gluon.html.XML object>)]"
p198
sS'_view_environment'
p199
S"{'A': <class 'gluon.html.A'>, 'Auth': <class 'gluon.tools.Auth'>, 'B': <class 'gluon.html.B'>, 'BEAUTIFY': <class 'gluon.html.BEAUTIFY'>, 'BODY': <class 'gluon.html.BODY'>, 'BR': <class 'gluon.html.BR'>, 'CENTER': <class 'gluon.html.CENTER'>, 'CLEANUP': <class 'gluon.validators.CLEANUP'>, 'CODE': <class 'gluon.html.CODE'>, 'CRYPT': <class 'gluon.validators.CRYPT'>, ...}"
p200
sS'subtitle'
p201
S"<lazyT 'customize me!'>"
p202
sS'session_id_name'
p203
S"'session_id_vlab'"
p204
sS'_custom_commit'
p205
S'None'
p206
sS'_caller'
p207
S'<function <lambda>>'
p208
sS'files'
p209
S'[]'
p210
sS'view'
p211
S"'default/index.html'"
p212
ssS'locals'
p213
(dp214
g3
S"'/home/shrenik/web2py/applications/vlab/views/default/index.html'"
p215
sg5
S'\'response.write(\\\'<html>\\\\n<head>\\\\n\\\\t<script type="...v>\\\\n  </div>\\\\n </body>\\\\n</html>\\\\n\\\', escape=False)\''
p216
sssS'traceback'
p217
S'Traceback (most recent call last):\n  File "/home/shrenik/web2py/gluon/restricted.py", line 186, in restricted\n    ccode = compile2(code,layer)\n  File "/home/shrenik/web2py/gluon/restricted.py", line 173, in compile2\n    return compile(code.rstrip().replace(\'\\r\\n\',\'\\n\')+\'\\n\', layer, \'exec\')\n  File "/home/shrenik/web2py/applications/vlab/views/default/index.html", line 73\n    f= int(e.replace(",",""))-int(g.replace(",","")) ; f_1= int(e_1.replace(",",""))-int(g_1.replace(",","")) ; f_2= int(e_2.replace(",",""))-int(g_2.replac    e(",",""))\n                                                                                                                                                                ^\nSyntaxError: invalid syntax\n'
p218
s.