(dp1
S'output'
p2
S''
sS'layer'
p3
S'/home/shrenik/web2py/applications/vlab/views/default/index.html'
p4
sS'code'
p5
S'response.write(\'<!DOCTYPE html PUBLIC "-//W3C//DTD XHTML 1.0 Transitional//EN" "http://www.w3.org/TR/xhtml1/DTD/xhtml1-transitional.dtd">\\n<html xmlns="http://www.w3.org/1999/xhtml" xml:lang="\', escape=False)\nresponse.write(T.accepted_language or \'en\')\nresponse.write(\'">\\n  <head>\\n    <title>\', escape=False)\nresponse.write(response.title or request.application)\nresponse.write(\'</title>\\n    <link rel="shortcut icon"\\n\\t  href="\', escape=False)\nresponse.write(URL(request.application,\'static\',\'favicon.ico\'))\nresponse.write(\'" \\n\\t  type="image/vnd.microsoft.icon">\\n    <meta http-equiv="Content-Type" content="text/html; charset=UTF-8" />\\n    \', escape=False)\n#------  require CSS and JS files for this page (read info in base.css) ------\nresponse.write(\'\\n    \', escape=False)\nresponse.files.append(URL(request.application,\'static\',\'base.css\'))\nresponse.write(\'\\n    \', escape=False)\nresponse.files.append(URL(request.application,\'static\',\'superfish.js\'))\nresponse.write(\'\\n    \', escape=False)\n#------ include web2py specific js code (jquery, calendar, form stuff) ------\nresponse.write(\'\\n    \', escape=False)\nresponse.files.insert(0,URL(r=request,c=\'static\',f=\'jquery.js\'))\nresponse.files.insert(1,URL(r=request,c=\'static\',f=\'calendar.css\'))\nresponse.files.insert(2,URL(r=request,c=\'static\',f=\'calendar.js\'))\nfor _item in response.meta or []:\n    response.write(\'\\n     <meta name="\', escape=False)\n    response.write(_item)\n    response.write(\'" content="\', escape=False)\n    response.write(response.meta[_item])\n    response.write(\'" />\', escape=False)\n    pass\nfor _k,_file in enumerate(response.files or []):\n    if _file in response.files[:_k]:\n        continue\n    elif _file.lower().endswith(\'.css\'):\n        response.write(\'\\n     <link href="\', escape=False)\n        response.write(_file)\n        response.write(\'" rel="stylesheet" type="text/css" />\', escape=False)\n    elif _file.lower().endswith(\'.js\'):\n        response.write(\'\\n     <script src="\', escape=False)\n        response.write(_file)\n        response.write(\'" type="text/javascript"></script>\', escape=False)\n        pass\n    pass\nresponse.write(\'\\n<script type="text/javascript"><!--\\nfunction popup(url) {\\n  newwindow=window.open(url,\\\'name\\\',\\\'height=400,width=600\\\');\\n  if (window.focus) newwindow.focus();\\n  return false;\\n}\\nfunction collapse(id) { jQuery(\\\'#\\\'+id).slideToggle(); }\\nfunction fade(id,value) { if(value>0) jQuery(\\\'#\\\'+id).hide().fadeIn(\\\'slow\\\'); else jQuery(\\\'#\\\'+id).show().fadeOut(\\\'slow\\\'); }\\nfunction ajax(u,s,t) {\\n    query = \\\'\\\';\\n    if (typeof s == "string") {\\n        d = jQuery(s).serialize();\\n        if(d){ query = d; }\\n    } else {\\n        pcs = [];\\n        for(i=0; i<s.length; i++) {\\n            q = jQuery("#"+s[i]).serialize();\\n            if(q){pcs.push(q);}\\n        }\\n        if (pcs.length>0){query = pcs.join("&");}\\n    }\\n    jQuery.ajax({type: "POST", url: u, data: query, success: function(msg) { if(t) { if(t==\\\':eval\\\') eval(msg); else jQuery("#" + t).html(msg); } } }); \\n}\\nString.prototype.reverse = function () { return this.split(\\\'\\\').reverse().join(\\\'\\\');};\\nfunction web2py_ajax_init() {\\n  jQuery(\\\'.hidden\\\').hide();\\n  jQuery(\\\'.error\\\').hide().slideDown(\\\'slow\\\');\\n  jQuery(\\\'.flash\\\').click(function() { jQuery(this).fadeOut(\\\'slow\\\'); return false; });\\n  jQuery(\\\'input.integer\\\').keyup(function(){this.value=this.value.reverse().replace(/[^0-9\\\\-]|\\\\-(?=.)/g,\\\'\\\').reverse();});\\n  jQuery(\\\'input.double\\\').keyup(function(){this.value=this.value.reverse().replace(/[^0-9\\\\-\\\\.]|[\\\\-](?=.)|[\\\\.](?=[0-9]*[\\\\.])/g,\\\'\\\').reverse();});\\n  jQuery("input[type=\\\'checkbox\\\'].delete").each(function(){jQuery(this).click(function() { if(this.checked) if(!confirm("\', escape=False)\nresponse.write(T(\'Sure you want to delete this object?\'))\nresponse.write(\'")) this.checked=false; });});\\n  try {jQuery("input.date").focus( function() {Calendar.setup({\\n     inputField:this.id, ifFormat:"\', escape=False)\nresponse.write(T(\'%Y-%m-%d\'))\nresponse.write(\'", showsTime:false\\n  }); }); } catch(e) {};\\n  try { jQuery("input.datetime").focus( function() {Calendar.setup({\\n     inputField:this.id, ifFormat:"\', escape=False)\nresponse.write(T(\'%Y-%m-%d %H:%M:%S\'))\nresponse.write(\'", showsTime: true,timeFormat: "24"\\n  }); }); } catch(e) {};\\n  try { jQuery("input.time").clockpick({\\n      starthour:0, endhour:23, showminutes:true, military:true\\n  }); } catch(e) {};\\n};\\njQuery(document).ready(function(){\\n   jQuery(\\\'.flash\\\').hide();\\n   if(jQuery(\\\'.flash\\\').html()!=\\\'\\\') jQuery(\\\'.flash\\\').slideDown(\\\'slow\\\');\\n   web2py_ajax_init();});\\n\\nfunction web2py_trap_form(action,target) {\\n   jQuery(\\\'#\\\'+target+\\\' form\\\').each(function(i){\\n      var form=jQuery(this);\\n      if(!form.hasClass(\\\'no_trap\\\'))\\n        form.submit(function(obj){\\n         jQuery(\\\'.flash\\\').hide().html(\\\'\\\');\\n         web2py_ajax_page(\\\'post\\\',action,form.serialize(),target);\\n         return false;\\n      });\\n   });\\n}\\n\\nfunction web2py_ajax_page(method,action,data,target) {\\n  jQuery.ajax({\\\'type\\\':method,\\\'url\\\':action,\\\'data\\\':data,\\n    \\\'beforeSend\\\':function(xhr){\\n      xhr.setRequestHeader(\\\'web2py-component-location\\\',document.location);\\n      xhr.setRequestHeader(\\\'web2py-component-element\\\',target);},\\n    \\\'complete\\\':function(xhr,text){\\n      command=xhr.getResponseHeader(\\\'web2py-component-command\\\');\\n      if(command) eval(command);\\n      flash=xhr.getResponseHeader(\\\'web2py-component-flash\\\');\\n      if(flash) jQuery(\\\'.flash\\\').html(flash).slideDown();\\n      },\\n    \\\'success\\\': function(text) {\\n      jQuery(\\\'#\\\'+target).html(text);\\n      web2py_trap_form(action,target);\\n      web2py_ajax_init();\\n      }\\n    });\\n}\\nfunction web2py_component(action,target) {\\n    jQuery(document).ready(function(){ web2py_ajax_page(\\\'get\\\',action,null,target); });\\n}\\n//--></script>\\n\', escape=False)\nresponse.write(\'\\n  </head>\\n  <body>\\n    <div class="flash">\', escape=False)\nresponse.write(response.flash or \'\')\nresponse.write(\'</div>\\n    <div class="ez-mr wrapper" id="layout">\\n      \', escape=False)\n#------ Layout 3 from http://www.ez-css.org/layouts ------\nresponse.write(\'\\n      <div class="ez-wr">\\n\\t<div class="ez-box" id="header">\\n\\t  \', escape=False)\ntry:\n    response.write(auth.navbar(action=URL(request.application,\'default\',\'user\')))\nexcept:pass\nresponse.write(\'\\n          <h1>\\n            <a href="">\', escape=False)\nresponse.write(response.title or \'response.title\')\nresponse.write(\'</a>\\n          </h1>            \\n          <h2>\\n\\t    \', escape=False)\nresponse.write(response.subtitle or \'response.subtitle\')\nresponse.write(\'\\n\\t  </h2>\\n\\t</div>\\n\\t<div class="ez-box" id="statusbar">\\n\\t  \', escape=False)\n#------ superfish menu ------\nresponse.write(\'\\n\\t  \', escape=False)\nresponse.write(MENU(response.menu,_class=\'sf-menu\'))\nresponse.write(\'\\n          <script>\\n\\t    jQuery(document).ready(function(){\\n              jQuery(\\\'ul.sf-menu\\\').superfish({delay:400});});\\n\\t  </script>\\n\\t</div>\\n\\t<div class="ez-wr">\\n\\t  <div class="ez-fl ez-negmx">\\n            <div class="ez-box" id="left_sidebar">\', escape=False)\n#------ unused space\nresponse.write(\'</div>\\n\\t  </div>\\n\\t  <div class="ez-fl ez-negmr">\\n            <div class="ez-box" id="content">\', escape=False)\nresponse.write(\'\\n\', escape=False)\nresponse.write(form)\nresponse.write(\'\\n\', escape=False)\nif len(list) > 0:\n    response.write(\'\\n<table>\\n\\t<tr width>\\n\\t\\t<th width="20%"> pid </th>\\n\\t\\t<th width="40%"> type of misses </th>\\n\\t\\t<th width="40%"> no of misses </th>\\n\\t</tr>\\n\\t\', escape=False)\n    for l in list:\n        response.write(\'\\n\\t<tr>\\n\\t\\t<td> \', escape=False)\n        response.write(l[0])\n        response.write(\' </td>\\n\\t\\t<td> \', escape=False)\n        response.write(l[1])\n        response.write(\' </td>\\n\\t\\t<td> \', escape=False)\n        response.write(l[2])\n        response.write(\' </td>\\n\\t</tr>\\n\\t\', escape=False)\n        pass\n    response.write(\'\\n</table>\\n\', escape=False)\n    pass\nresponse.write(\'\\n\', escape=False)\nif len(list) == 0 and flag==1\nresponse.write(\'\\n<h3> There was some error in the Input provided . Please try again with a valid input </h3>\\n\', escape=False)\npass\nresponse.write(\'\\n\\n\', escape=False)\nresponse.write(\'</div>\\n\\t  </div>\\n\\t  <div class="ez-last ez-oh">\\n            <div class="ez-box" id="right_sidebar">\', escape=False)\n#------ unused space\nresponse.write(\'</div>\\n\\t  </div>\\n\\t</div>\\n\\t<div class="ez-box" id="footer">\\n          \', escape=False)\nresponse.write(T(\'Copyright\'))\nresponse.write(\' &#169; 2010 -\\n          \', escape=False)\nresponse.write(T(\'Powered by\'))\nresponse.write(\' <a href="http://www.web2py.com">web2py</a>\\n\\t</div>\\n      </div>\\n    </div>\\n  </body>\\n</html>\\n\', escape=False)'
p6
sS'snapshot'
p7
(dp8
S'exception'
p9
(dp10
S'__getslice__'
p11
S"<method-wrapper '__getslice__' of exceptions.SyntaxError object>"
p12
sS'text'
p13
S"'if len(list) == 0 and flag==1\\n'"
p14
sS'__str__'
p15
S"<method-wrapper '__str__' of exceptions.SyntaxError object>"
p16
sS'__reduce__'
p17
S'<built-in method __reduce__ of exceptions.SyntaxError object>'
p18
sS'__dict__'
p19
S'{}'
p20
sS'__sizeof__'
p21
S'<built-in method __sizeof__ of exceptions.SyntaxError object>'
p22
sS'__init__'
p23
S"<method-wrapper '__init__' of exceptions.SyntaxError object>"
p24
sS'__setattr__'
p25
S"<method-wrapper '__setattr__' of exceptions.SyntaxError object>"
p26
sS'__reduce_ex__'
p27
S'<built-in method __reduce_ex__ of exceptions.SyntaxError object>'
p28
sS'__new__'
p29
S'<built-in method __new__ of type object>'
p30
sS'__format__'
p31
S'<built-in method __format__ of exceptions.SyntaxError object>'
p32
sS'__class__'
p33
S"<type 'exceptions.SyntaxError'>"
p34
sS'filename'
p35
S"'/home/shrenik/web2py/applications/vlab/views/default/index.html'"
p36
sS'lineno'
p37
S'82'
p38
sS'msg'
p39
S"'invalid syntax'"
p40
sS'__doc__'
p41
S"'Invalid syntax.'"
p42
sS'__getitem__'
p43
S"<method-wrapper '__getitem__' of exceptions.SyntaxError object>"
p44
sS'__setstate__'
p45
S'<built-in method __setstate__ of exceptions.SyntaxError object>'
p46
sS'__getattribute__'
p47
S"<method-wrapper '__getattribute__' of exceptions.SyntaxError object>"
p48
sS'print_file_and_line'
p49
S'None'
p50
sS'args'
p51
S"('invalid syntax', ('/home/shrenik/web2py/applications/vlab/views/default/index.html', 82, 30, 'if len(list) == 0 and flag==1\\n'))"
p52
sS'__subclasshook__'
p53
S'<built-in method __subclasshook__ of type object>'
p54
sS'offset'
p55
S'30'
p56
sS'__unicode__'
p57
S'<built-in method __unicode__ of exceptions.SyntaxError object>'
p58
sS'__delattr__'
p59
S"<method-wrapper '__delattr__' of exceptions.SyntaxError object>"
p60
sS'__repr__'
p61
S"<method-wrapper '__repr__' of exceptions.SyntaxError object>"
p62
sS'__hash__'
p63
S"<method-wrapper '__hash__' of exceptions.SyntaxError object>"
p64
ssS'evalue'
p65
S'invalid syntax (index.html, line 82)'
p66
sS'request'
p67
(dp68
S'function'
p69
S"'index'"
p70
sS'body'
p71
S"<open file '<fdopen>', mode 'w+b'>"
p72
sS'wsgi'
p73
S"<Storage {'start_response': <function <lambda> a...ING': 'gzip,deflate', 'HTTP_KEEP_ALIVE': '115'}}>"
p74
sS'extension'
p75
S"'html'"
p76
sS'vars'
p77
S"<Storage {'i1_associativity': '2', 'd1_size': '6...ciativity': '2', '_formname': 'programs_create'}>"
p78
sS'cid'
p79
S'None'
p80
sS'url'
p81
S'<gluon.html.XML object>'
p82
sg51
S'[]'
p83
sS'controller'
p84
S"'default'"
p85
sS'cookies'
p86
S"<SimpleCookie: session_id_admin='127-0-0-1-020b2...'127-0-0-1-d51e55bb-1989-4c66-91bc-ad4e17601eab'>"
p87
sS'application'
p88
S"'vlab'"
p89
sS'ajax'
p90
S'False'
p91
sS'client'
p92
S"'127.0.0.1'"
p93
sS'env'
p94
S"<Storage {'content_length': '1915', 'http_user_a...te', 'query_string': '', 'wsgi_run_once': False}>"
p95
sS'raw_args'
p96
S'None'
p97
sS'get_vars'
p98
S'<Storage {}>'
p99
sS'folder'
p100
S"'/home/shrenik/web2py/applications/vlab/'"
p101
sS'now'
p102
S'datetime.datetime(2010, 10, 20, 0, 21, 45, 816275)'
p103
sS'post_vars'
p104
S"<Storage {'i1_associativity': '2', 'd1_size': '6...ciativity': '2', '_formname': 'programs_create'}>"
p105
ssS'frames'
p106
(lp107
(dp108
S'file'
p109
S'/home/shrenik/web2py/gluon/restricted.py'
p110
sS'dump'
p111
(dp112
S'code'
p113
S'\'response.write(\\\'<!DOCTYPE html PUBLIC "-//W3C//D...n    </div>\\\\n  </body>\\\\n</html>\\\\n\\\', escape=False)\''
p114
sS'layer'
p115
S"'/home/shrenik/web2py/applications/vlab/views/default/index.html'"
p116
sS'global compile2'
p117
S'<function compile2>'
p118
sS'ccode'
p119
S'undefined'
p120
ssS'lnum'
p121
I186
sS'lines'
p122
(dp123
I181
S''
sI182
S'    try:'
p124
sI183
S'        if type(code) == types.CodeType:'
p125
sI184
S'            ccode = code'
p126
sI185
S'        else:'
p127
sI186
S'            ccode = compile2(code,layer)'
p128
sI187
S''
sI188
S'        exec ccode in environment'
p129
sI189
S'    except HTTP:'
p130
sI190
S'        raise'
p131
ssS'call'
p132
S'(code=\'response.write(\\\'<!DOCTYPE html PUBLIC "-//W3C//D...n    </div>\\\\n  </body>\\\\n</html>\\\\n\\\', escape=False)\', environment={\'A\': <class \'gluon.html.A\'>, \'Auth\': <class \'gluon.tools.Auth\'>, \'B\': <class \'gluon.html.B\'>, \'BEAUTIFY\': <class \'gluon.html.BEAUTIFY\'>, \'BODY\': <class \'gluon.html.BODY\'>, \'BR\': <class \'gluon.html.BR\'>, \'CENTER\': <class \'gluon.html.CENTER\'>, \'CLEANUP\': <class \'gluon.validators.CLEANUP\'>, \'CODE\': <class \'gluon.html.CODE\'>, \'CRYPT\': <class \'gluon.validators.CRYPT\'>, ...}, layer=\'/home/shrenik/web2py/applications/vlab/views/default/index.html\')'
p133
sS'func'
p134
S'restricted'
p135
sa(dp136
g109
S'/home/shrenik/web2py/gluon/restricted.py'
p137
sg111
(dp138
S'builtincompile'
p139
S'<built-in function compile>'
p140
sS'code'
p141
S'\'response.write(\\\'<!DOCTYPE html PUBLIC "-//W3C//D...n    </div>\\\\n  </body>\\\\n</html>\\\\n\\\', escape=False)\''
p142
sS'code.rstrip'
p143
S'<built-in method rstrip of str object>'
p144
sS').replace'
p145
g120
sS'layer'
p146
S"'/home/shrenik/web2py/applications/vlab/views/default/index.html'"
p147
ssg121
I173
sg122
(dp148
I168
S''
sI169
S'def compile2(code,layer):'
p149
sI170
S'    """'
p150
sI171
S"    The +'\\n' is necessary else compile fails when code ends in a comment."
p151
sI172
S'    """'
p152
sI173
S"    return compile(code.rstrip().replace('\\r\\n','\\n')+'\\n', layer, 'exec')"
p153
sI174
S''
sI175
S"def restricted(code, environment={}, layer='Unknown'):"
p154
sI176
S'    """'
p155
sI177
S'    runs code in environment and returns the output. if an exception occurs'
p156
ssg132
S'(code=\'response.write(\\\'<!DOCTYPE html PUBLIC "-//W3C//D...n    </div>\\\\n  </body>\\\\n</html>\\\\n\\\', escape=False)\', layer=\'/home/shrenik/web2py/applications/vlab/views/default/index.html\')'
p157
sg134
S'compile2'
p158
sasS'pyver'
p159
S'Python 2.6.6: /usr/bin/python'
p160
sS'session'
p161
(dp162
S'count'
p163
S'1'
sS'auth'
p164
S'None'
p165
sS'_formkey[programs_create]'
p166
S"'2cdade09-8677-45b1-a9fe-3934d71915bc'"
p167
ssS'etype'
p168
S"<type 'exceptions.SyntaxError'>"
p169
sS'date'
p170
S'Wed Oct 20 00:21:45 2010'
p171
sS'response'
p172
(dp173
S'status'
p174
S'200'
p175
sg71
S'<cStringIO.StringO object>'
p176
sg86
S"<SimpleCookie: session_id_vlab='127-0-0-1-bd6aca27-1ced-49d5-b876-eb675abd268c'>"
p177
sS'_vars'
p178
S"{'flag': 0, 'form': <gluon.sqlhtml.SQLFORM object>, 'list': [], 'message': <lazyT 'Hello World'>, 'pid': []}"
p179
sS'title'
p180
S"'vlab'"
p181
sS'session_file'
p182
S"<open file '/home/shrenik/web2py/applications/vl...d6aca27-1ced-49d5-b876-eb675abd268c', mode 'rb+'>"
p183
sS'flash'
p184
S"<lazyT 'Welcome to web2py'>"
p185
sS'_custom_rollback'
p186
S'None'
p187
sS'session_id'
p188
S"'127-0-0-1-bd6aca27-1ced-49d5-b876-eb675abd268c'"
p189
sS'headers'
p190
S"<Storage {'Expires': 'Tue, 19 Oct 2010 18:51:45 ...he, must-revalidate, post-check=0, pre-check=0'}>"
p191
sS'meta'
p192
S"<Storage {'keywords': 'bla bla bla', 'description': 'describe your app', 'author': 'you'}>"
p193
sS'session_filename'
p194
S"'/home/shrenik/web2py/applications/vlab/sessions/127-0-0-1-bd6aca27-1ced-49d5-b876-eb675abd268c'"
p195
sS'postprocessing'
p196
S'[]'
p197
sS'menu'
p198
S"[(<lazyT 'Index'>, False, <gluon.html.XML object>, [])]"
p199
sS'_view_environment'
p200
S"{'A': <class 'gluon.html.A'>, 'Auth': <class 'gluon.tools.Auth'>, 'B': <class 'gluon.html.B'>, 'BEAUTIFY': <class 'gluon.html.BEAUTIFY'>, 'BODY': <class 'gluon.html.BODY'>, 'BR': <class 'gluon.html.BR'>, 'CENTER': <class 'gluon.html.CENTER'>, 'CLEANUP': <class 'gluon.validators.CLEANUP'>, 'CODE': <class 'gluon.html.CODE'>, 'CRYPT': <class 'gluon.validators.CRYPT'>, ...}"
p201
sS'subtitle'
p202
S"<lazyT 'customize me!'>"
p203
sS'session_id_name'
p204
S"'session_id_vlab'"
p205
sS'_custom_commit'
p206
S'None'
p207
sS'_caller'
p208
S'<function <lambda>>'
p209
sS'files'
p210
S'[]'
p211
sS'view'
p212
S"'default/index.html'"
p213
ssS'locals'
p214
(dp215
g3
S"'/home/shrenik/web2py/applications/vlab/views/default/index.html'"
p216
sg5
S'\'response.write(\\\'<!DOCTYPE html PUBLIC "-//W3C//D...n    </div>\\\\n  </body>\\\\n</html>\\\\n\\\', escape=False)\''
p217
sssS'traceback'
p218
S'Traceback (most recent call last):\n  File "/home/shrenik/web2py/gluon/restricted.py", line 186, in restricted\n    ccode = compile2(code,layer)\n  File "/home/shrenik/web2py/gluon/restricted.py", line 173, in compile2\n    return compile(code.rstrip().replace(\'\\r\\n\',\'\\n\')+\'\\n\', layer, \'exec\')\n  File "/home/shrenik/web2py/applications/vlab/views/default/index.html", line 82\n    if len(list) == 0 and flag==1\n                                ^\nSyntaxError: invalid syntax\n'
p219
s.