(dp1
S'output'
p2
S''
sS'layer'
p3
S'/home/shrenik/web2py/applications/vlab/controllers/default.py'
p4
sS'code'
p5
S'\n#########################################################################\n## This is a samples controller\n## - index is the default action of any application\n## - user is required for authentication and authorization\n## - download is for downloading files uploaded in the db (does streaming)\n## - call exposes all registered services (none by default)\n#########################################################################  \n@auth.requires_login()\ndef index():\n    import os\n    import re\n    import commands\n    """\n    example action using the internationalization operator T and flash\n    rendered by views/default/index.html or views/generic.html\n    """\n    if session.i1_ass :\n\t    print session.i1_ass\n\t    db.programs.i1_associativity.default=session.i1_ass\n    pid=[]\n    values={}\n    flag=0\n    compile=True\n    list=[]\n    out="Test"\n    inp=None\n    out_mod=None\n    input_path=""; i1_s=0\n    form=SQLFORM(db.programs)\n    if(form.accepts(request.vars,session)):\n\t session.i1_ass=form.vars.i1_associativity\n         flag=1\n\t path=os.getcwd()\n         path=path+\'/applications/vlab/uploads/\'#+form.vars.file\n         inp=commands.getstatusoutput(\'cc \'+path+form.vars.file+\' -o\'+path+str(auth.user.id))\n\t if inp[0] != 0:\n\t\t compile=False\n\t i1_s=form.vars.i1_size * 1024; values["i1_s"]=i1_s\n\t d1_s=form.vars.d1_size * 1024; values["d1_s"]=d1_s\n\t l2_s=form.vars.l2_size * 1024; values["l2_s"]=l2_s\n\t values["compile"]=compile; values["input"]=""\n\t if compile==True:\n          command=\'valgrind --tool=cachegrind --I1=\'+str(i1_s)+\',\'+str(form.vars.i1_associativity)+\',\'+str(form.vars.i1_line_size)+ \' --cachegrind-out-file=\'+path+str(auth.user.id)+\'.%p \'+path+str(auth.user.id)\n          if len(form.vars.input_file)>0:\n\t     input_path=os.getcwd()\n             input_path=input_path+\'/applications/vlab/uploads/\'+form.vars.input_file; values["input"]=input_path\n             command=command+\'<\'+input_path\n         \n\t  out=commands.getstatusoutput(command)\n\t  out_mod=re.split(\'\\n\',out[1])\n\t  regex="==(\\d*)==\\s*([^:]*):\\s*(\\d+.*)"\n\t  for i in out_mod:\n\t\t match=re.findall(regex,i)\n\t\t if len(match)>0:\n\t\t \tprocid=match[0][0]\n\t\t\tif procid not in pid:\n\t\t\t\t pid.append(procid)\n\t\t\tlist.append(match[0])\t\n    if len(list)>0:\n\tregex="([^\\(]+)\\(\\s*(\\S+)[^\\+]*\\+\\s*(\\S+).*" ; t1= re.findall(regex,list[5][2]) ; values["a"]=t1[0][0] ; values["a_1"]=t1[0][1] ; values["a_2"] = t1[0][2] \n\tt2= re.findall(regex,list[6][2]) ; values["c"]=t2[0][0] ; values["c_1"]=t2[0][1] ; values["c_2"] = t2[0][2] ; values["e"]=values["c"] ; values["e_1"] = values["c_1"]; values["e_2"]=values["c_2"] \n\tt3= re.findall(regex,list[8][2]) ; values["d"]=t3[0][0] ; values["d_1"]=t3[0][1] ; values["d_2"] = t3[0][2] \n\tt4= re.findall(regex,list[7][2]) ; values["g"]=t4[0][0] ; values["g_1"]=t4[0][1] ; values["g_2"] = t4[0][2]\n\tvalues["b"]= int(values["a"].replace(",",""))-int(values["c"].replace(",","")) ; values["b_1"]= int(values["a_1"].replace(",",""))-int(values["c_1"].replace(",","")) ; values["b_2"]= int(values["a_2"].replace(",",""))-int(values["c_2"].replace(",","")) \n\tvalues["f"]= int(values["e"].replace(",",""))-int(values["g"].replace(",","")) ; values["f_1"]= int(values["e_1"].replace(",",""))-int(values["g_1"].replace(",","")) ; values["f_2"]= int(values["e_2"].replace(",",""))-int(values["g_2"].replace(",","")) \n\tvalues["h"]=str("%.2f"%((float(values["g"].replace(",",""))/float(values["e"].replace(",","")))*100))+"%" \n\tvalues["h_1"]=str("%.2f"%((float(values["g_1"].replace(",",""))/float(values["e_1"].replace(",","")))*100))+"%"\n\tvalues["h_2"]=str("%.2f"%((float(values["g_2"].replace(",",""))/float(values["e_2"].replace(",","")))*100))+"%"\n    #session.values={}\n    #session.values=values\n    session.input=input_path\n    session.compile=compile\n    session.i1_s=i1_s\n    response.flash = T(\'Welcome to web2py\')\n    return dict(form=form,message=T(\'Hello World\'),list=list,pid=pid,flag=flag,values=values,compile=compile)\n\ndef show_session():\n\treturn dict(session=session)\n\ndef show_graphs():\n\t import os\n\t import re\n\t import commands\n\t list=[]\n\t #values=session.values\n\t y1=[]\n\t y2=[]\n\t path=os.getcwd()\n         path=path+\'/applications/vlab/uploads/\'\n\t input_path=session.input\n\t if session.compile==True:\n\t\tfor i in [1,2,4,8]: \n\t\t\tprint i\n\t\t\tcommand=\'valgrind --tool=cachegrind --I1=\'+str(session.i1_s)+\',\'+str(i)+\',\'+str(64)+ \' --cachegrind-out-file=\'+path+str(auth.user.id)+\'.%p \'+path+str(auth.user.id)\n\t \t\tif input_path != None:\n\t   \t\t\tcommand=command + \'<\' +input_path\n\t\t\tout=commands.getstatusoutput(command)\n\t\t\tos.wait()\n\t\t\tout_mod=re.split(\'\\n\',out[1])\n\t  \t\tregex="==(\\d*)==\\s*([^:]*):\\s*(\\d+.*)"\n\t  \t\tfor j in out_mod:\n\t\t \t\tmatch=re.findall(regex,j)\n\t\t \t\tif len(match)>0:\n\t\t\t\t\tlist.append(match[0])\n\t\t\tprint out[1]\n\n\t\t\tif len(list) >0:\n\t\t\t\ty1.append(float(re.findall(\'[^%]+\',(list[3][2]))[0]))\n\t\t\t\tregex="([^\\(]+)\\(\\s*(\\S+)[^\\+]*\\+\\s*(\\S+).*"\n\t\t\t\tt3= re.findall(regex,list[8][2])\n\t\t\t\ty2.append(float(re.findall(\'[^%]+\',t3[0][0])[0]))\n\t\t\n\t\tctr=0\n\t\tans="[["\n\t\tfor i in [1,2,4,8]:\n\t\t\tans=ans+\'[\'+str(i)+\',\'+str(y1[ctr])+\']\'\n\t\t\tif i!=8:\n\t\t\t\tans+=\',\'\n\t\t\tctr+=1\n\t\tans+=\'],\'\n\t\tans+="["\n\t\tctr=0\n\t\tfor i in [1,2,4,8]:\n\t\t\tans=ans+\'[\'+str(i)+\',\'+str(y2[ctr])+\']\'\n\t\t\tif i!=8:\n\t\t\t\tans+=\',\'\n\t\t\tctr+=1\n\t\tans+=\']]\'\n\t\tprint ans\n         return dict(ans=ans)\n\n\t \n\n\ndef customize():\n    form=SQLFORM(db.options)\n    \ndef user():\n    """\n    exposes:\n    http://..../[app]/default/user/login \n    http://..../[app]/default/user/logout\n    http://..../[app]/default/user/register\n    http://..../[app]/default/user/profile\n    http://..../[app]/default/user/retrieve_password\n    http://..../[app]/default/user/change_password\n    use @auth.requires_login()\n        @auth.requires_membership(\'group name\')\n        @auth.requires_permission(\'read\',\'table name\',record_id)\n    to decorate functions that need access control\n    """\n    return dict(form=auth())\n\n\ndef download():\n    """\n    allows downloading of uploaded files\n    http://..../[app]/default/download/[filename]\n    """\n    return response.download(request,db)\n\n\ndef call():\n    """\n    exposes services. for example:\n    http://..../[app]/default/call/jsonrpc\n    decorate with @services.jsonrpc the functions to expose\n    supports xml, json, xmlrpc, jsonrpc, amfrpc, rss, csv\n    """\n    session.forget()\n    return service()\n\nresponse._vars=response._caller(show_graphs)\n'
p6
sS'snapshot'
p7
(dp8
S'exception'
p9
(dp10
S'__getslice__'
p11
S"<method-wrapper '__getslice__' of exceptions.OSError object>"
p12
sS'__str__'
p13
S"<method-wrapper '__str__' of exceptions.OSError object>"
p14
sS'__reduce__'
p15
S'<built-in method __reduce__ of exceptions.OSError object>'
p16
sS'__dict__'
p17
S'{}'
p18
sS'__sizeof__'
p19
S'<built-in method __sizeof__ of exceptions.OSError object>'
p20
sS'__init__'
p21
S"<method-wrapper '__init__' of exceptions.OSError object>"
p22
sS'__setattr__'
p23
S"<method-wrapper '__setattr__' of exceptions.OSError object>"
p24
sS'__reduce_ex__'
p25
S'<built-in method __reduce_ex__ of exceptions.OSError object>'
p26
sS'__new__'
p27
S'<built-in method __new__ of type object>'
p28
sS'errno'
p29
S'10'
p30
sS'__format__'
p31
S'<built-in method __format__ of exceptions.OSError object>'
p32
sS'__class__'
p33
S"<type 'exceptions.OSError'>"
p34
sS'filename'
p35
S'None'
p36
sS'__doc__'
p37
S"'OS system call failed.'"
p38
sS'__getitem__'
p39
S"<method-wrapper '__getitem__' of exceptions.OSError object>"
p40
sS'__setstate__'
p41
S'<built-in method __setstate__ of exceptions.OSError object>'
p42
sS'__getattribute__'
p43
S"<method-wrapper '__getattribute__' of exceptions.OSError object>"
p44
sS'args'
p45
S"(10, 'No child processes')"
p46
sS'__subclasshook__'
p47
S'<built-in method __subclasshook__ of type object>'
p48
sS'__unicode__'
p49
S'<built-in method __unicode__ of exceptions.OSError object>'
p50
sS'strerror'
p51
S"'No child processes'"
p52
sS'__delattr__'
p53
S"<method-wrapper '__delattr__' of exceptions.OSError object>"
p54
sS'__repr__'
p55
S"<method-wrapper '__repr__' of exceptions.OSError object>"
p56
sS'__hash__'
p57
S"<method-wrapper '__hash__' of exceptions.OSError object>"
p58
ssS'evalue'
p59
S'[Errno 10] No child processes'
p60
sS'request'
p61
(dp62
S'function'
p63
S"'show_graphs'"
p64
sS'body'
p65
S'<cStringIO.StringO object>'
p66
sS'wsgi'
p67
S"<Storage {'start_response': <function <lambda> a...ING': 'gzip,deflate', 'HTTP_KEEP_ALIVE': '115'}}>"
p68
sS'extension'
p69
S"'html'"
p70
sS'vars'
p71
S'<Storage {}>'
p72
sS'cid'
p73
S'None'
p74
sS'url'
p75
S'<gluon.html.XML object>'
p76
sg45
S'[]'
p77
sS'controller'
p78
S"'default'"
p79
sS'cookies'
p80
S"<SimpleCookie: __utma='96992031.1671719183.12879...'127-0-0-1-7c81a3a8-064b-4080-b26a-e68a38b3f52f'>"
p81
sS'application'
p82
S"'vlab'"
p83
sS'ajax'
p84
S'False'
p85
sS'client'
p86
S"'127.0.0.1'"
p87
sS'env'
p88
S"<Storage {'http_user_agent': 'Mozilla/5.0 (X11; ...False, 'path_info': '/vlab/default/show_graphs'}>"
p89
sS'raw_args'
p90
S'None'
p91
sS'get_vars'
p92
S'<Storage {}>'
p93
sS'folder'
p94
S"'/home/shrenik/web2py/applications/vlab/'"
p95
sS'now'
p96
S'datetime.datetime(2010, 10, 27, 2, 40, 13, 237997)'
p97
sS'post_vars'
p98
S'<Storage {}>'
p99
ssS'frames'
p100
(lp101
(dp102
S'file'
p103
S'/home/shrenik/web2py/gluon/restricted.py'
p104
sS'dump'
p105
(dp106
S'environment'
p107
S"{'A': <class 'gluon.html.A'>, 'Auth': <class 'gluon.tools.Auth'>, 'B': <class 'gluon.html.B'>, 'BEAUTIFY': <class 'gluon.html.BEAUTIFY'>, 'BODY': <class 'gluon.html.BODY'>, 'BR': <class 'gluon.html.BR'>, 'CENTER': <class 'gluon.html.CENTER'>, 'CLEANUP': <class 'gluon.validators.CLEANUP'>, 'CODE': <class 'gluon.html.CODE'>, 'CRYPT': <class 'gluon.validators.CRYPT'>, ...}"
p108
sS'ccode'
p109
S'<code object <module> at 0x9563890, file "/home/...pplications/vlab/controllers/default.py", line 9>'
p110
ssS'lnum'
p111
I188
sS'lines'
p112
(dp113
I192
S'        # XXX Show exception in Wing IDE if running in debugger'
p114
sI183
S'        if type(code) == types.CodeType:'
p115
sI184
S'            ccode = code'
p116
sI185
S'        else:'
p117
sI186
S'            ccode = compile2(code,layer)'
p118
sI187
S''
sI188
S'        exec ccode in environment'
p119
sI189
S'    except HTTP:'
p120
sI190
S'        raise'
p121
sI191
S'    except Exception:'
p122
ssS'call'
p123
S"(code='\\n###############################################...()\\n\\nresponse._vars=response._caller(show_graphs)\\n', environment={'A': <class 'gluon.html.A'>, 'Auth': <class 'gluon.tools.Auth'>, 'B': <class 'gluon.html.B'>, 'BEAUTIFY': <class 'gluon.html.BEAUTIFY'>, 'BODY': <class 'gluon.html.BODY'>, 'BR': <class 'gluon.html.BR'>, 'CENTER': <class 'gluon.html.CENTER'>, 'CLEANUP': <class 'gluon.validators.CLEANUP'>, 'CODE': <class 'gluon.html.CODE'>, 'CRYPT': <class 'gluon.validators.CRYPT'>, ...}, layer='/home/shrenik/web2py/applications/vlab/controllers/default.py')"
p124
sS'func'
p125
S'restricted'
p126
sa(dp127
g103
S'/home/shrenik/web2py/applications/vlab/controllers/default.py'
p128
sg105
(dp129
sg111
I174
sg112
(dp130
I163
S''
sI164
S'def call():'
p131
sI165
S'    """'
p132
sI166
S'    exposes services. for example:'
p133
sI167
S'    http://..../[app]/default/call/jsonrpc'
p134
sI168
S'    decorate with @services.jsonrpc the functions to expose'
p135
sI169
S'    supports xml, json, xmlrpc, jsonrpc, amfrpc, rss, csv'
p136
sI170
S'    """'
p137
sI171
S'    session.forget()'
p138
sI172
S'    return service()'
p139
ssg123
S'()'
p140
sg125
S'<module>'
p141
sa(dp142
g103
S'/home/shrenik/web2py/gluon/globals.py'
p143
sg105
(dp144
S'self'
p145
S'undefined'
p146
sS'f'
S'<function show_graphs>'
p147
ssg111
I96
sg112
(dp148
I96
S'        self._caller = lambda f: f()'
p149
sI97
S'        self._view_environment = None'
p150
sI98
S'        self._custom_commit = None'
p151
sI99
S'        self._custom_rollback = None'
p152
sI100
S''
sI91
S"        self.flash = ''           # used by the default view layout"
p153
sI92
S'        self.meta = Storage()     # used by web2py_ajax.html'
p154
sI93
S'        self.menu = []            # used by the default view layout'
p155
sI94
S'        self.files = []           # used by web2py_ajax.html'
p156
sI95
S'        self._vars = None'
p157
ssg123
S'(f=<function show_graphs>)'
p158
sg125
S'<lambda>'
p159
sa(dp160
g103
S'/home/shrenik/web2py/applications/vlab/controllers/default.py'
p161
sg105
(dp162
S'os.wait'
p163
S'<built-in function wait>'
p164
sS'os'
p165
S"<module 'os' from '/usr/lib/python2.6/os.pyc'>"
p166
ssg111
I99
sg112
(dp167
I96
S'\t \t\tif input_path != None:'
p168
sI97
S"\t   \t\t\tcommand=command + '<' +input_path"
p169
sI98
S'\t\t\tout=commands.getstatusoutput(command)'
p170
sI99
S'\t\t\tos.wait()'
p171
sI100
S"\t\t\tout_mod=re.split('\\n',out[1])"
p172
sI101
S'\t  \t\tregex="==(\\d*)==\\s*([^:]*):\\s*(\\d+.*)"'
p173
sI102
S'\t  \t\tfor j in out_mod:'
p174
sI103
S'\t\t \t\tmatch=re.findall(regex,j)'
p175
sI94
S'\t\t\tprint i'
p176
sI95
S"\t\t\tcommand='valgrind --tool=cachegrind --I1='+str(session.i1_s)+','+str(i)+','+str(64)+ ' --cachegrind-out-file='+path+str(auth.user.id)+'.%p '+path+str(auth.user.id)"
p177
ssg123
S'()'
p178
sg125
S'show_graphs'
p179
sasS'pyver'
p180
S'Python 2.6.6: /usr/bin/python'
p181
sS'session'
p182
(dp183
S'i1_ass'
p184
S'4'
sS'flash'
p185
S'None'
p186
sS'auth'
p187
S"<Storage {'expiration': 3600, 'user': <Storage {..., 10, 27, 2, 40, 13, 237997), 'remember': False}>"
p188
sS'compile'
p189
S'True'
p190
sS'i1_s'
p191
S'2048'
p192
sS'_formkey[programs_create]'
p193
S"'ccc1ca6f-1f86-4e3f-8c3c-bd43e57f6ae1'"
p194
sS'input'
p195
S"'/home/shrenik/web2py/applications/vlab/uploads/programs.input_file.a37e7098f49e8ce5.74657374.txt'"
p196
sS'_formkey[login]'
p197
S"'f2d45f6a-61fc-44bd-9639-0a4a5bc8f4d7'"
p198
ssS'etype'
p199
S"<type 'exceptions.OSError'>"
p200
sS'date'
p201
S'Wed Oct 27 02:40:13 2010'
p202
sS'response'
p203
(dp204
S'status'
p205
S'200'
p206
sg65
S'<cStringIO.StringO object>'
p207
sg80
S"<SimpleCookie: session_id_vlab='127-0-0-1-7c81a3a8-064b-4080-b26a-e68a38b3f52f'>"
p208
sS'_vars'
p209
S'None'
p210
sS'title'
p211
S"'vlab'"
p212
sS'session_file'
p213
S"<open file '/home/shrenik/web2py/applications/vl...c81a3a8-064b-4080-b26a-e68a38b3f52f', mode 'rb+'>"
p214
sS'flash'
p215
S"''"
p216
sS'_custom_rollback'
p217
S'None'
p218
sS'session_id'
p219
S"'127-0-0-1-7c81a3a8-064b-4080-b26a-e68a38b3f52f'"
p220
sS'headers'
p221
S"<Storage {'Expires': 'Tue, 26 Oct 2010 21:10:13 ...he, must-revalidate, post-check=0, pre-check=0'}>"
p222
sS'meta'
p223
S"<Storage {'keywords': 'bla bla bla', 'description': 'describe your app', 'author': 'you'}>"
p224
sS'session_filename'
p225
S"'/home/shrenik/web2py/applications/vlab/sessions/127-0-0-1-7c81a3a8-064b-4080-b26a-e68a38b3f52f'"
p226
sS'postprocessing'
p227
S'[]'
p228
sS'menu'
p229
S"[(<lazyT 'Index'>, False, <gluon.html.XML object>, []), ('Change Layout', False, <gluon.html.XML object>)]"
p230
sS'_view_environment'
p231
S"{'A': <class 'gluon.html.A'>, 'Auth': <class 'gluon.tools.Auth'>, 'B': <class 'gluon.html.B'>, 'BEAUTIFY': <class 'gluon.html.BEAUTIFY'>, 'BODY': <class 'gluon.html.BODY'>, 'BR': <class 'gluon.html.BR'>, 'CENTER': <class 'gluon.html.CENTER'>, 'CLEANUP': <class 'gluon.validators.CLEANUP'>, 'CODE': <class 'gluon.html.CODE'>, 'CRYPT': <class 'gluon.validators.CRYPT'>, ...}"
p232
sS'subtitle'
p233
S"<lazyT 'customize me!'>"
p234
sS'session_id_name'
p235
S"'session_id_vlab'"
p236
sS'_custom_commit'
p237
S'None'
p238
sS'_caller'
p239
S'<function <lambda>>'
p240
sS'files'
p241
S'[]'
p242
sS'view'
p243
S"'default/show_graphs.html'"
p244
ssS'locals'
p245
(dp246
S'commands'
p247
S"<module 'commands' from '/usr/lib/python2.6/commands.pyc'>"
p248
sS'input_path'
p249
S"'/home/shrenik/web2py/applications/vlab/uploads/programs.input_file.a37e7098f49e8ce5.74657374.txt'"
p250
sS'i'
S'1'
sS'list'
p251
S'[]'
p252
sS're'
p253
S"<module 're' from '/usr/lib/python2.6/re.pyc'>"
p254
sS'command'
p255
S"'valgrind --tool=cachegrind --I1=2048,1,64 --cach...programs.input_file.a37e7098f49e8ce5.74657374.txt'"
p256
sS'y1'
p257
S'[]'
p258
sS'path'
p259
S"'/home/shrenik/web2py/applications/vlab/uploads/'"
p260
sS'y2'
p261
S'[]'
p262
sS'os'
p263
S"<module 'os' from '/usr/lib/python2.6/os.pyc'>"
p264
sS'out'
p265
S"(0, '==5072== Cachegrind, a cache and branch-predicti...2 miss rate:      0.6% (    0.6%     +    0.5%  )')"
p266
sssS'traceback'
p267
S'Traceback (most recent call last):\n  File "/home/shrenik/web2py/gluon/restricted.py", line 188, in restricted\n    exec ccode in environment\n  File "/home/shrenik/web2py/applications/vlab/controllers/default.py", line 174, in <module>\n  File "/home/shrenik/web2py/gluon/globals.py", line 96, in <lambda>\n    self._caller = lambda f: f()\n  File "/home/shrenik/web2py/applications/vlab/controllers/default.py", line 99, in show_graphs\n    os.wait()\nOSError: [Errno 10] No child processes\n'
p268
s.