(dp1
S'output'
p2
S''
sS'layer'
p3
S'/home/shrenik/web2py/applications/vlab/views/default/index.html'
p4
sS'code'
p5
S'response.write(\'<html>\\n<head>\\n\\t<script type="text/javascript">\\n\\t\\tfunction startTime()\\n\\t\\t{\\n\\t\\tvar today=new Date();\\n\\t\\tvar h=today.getHours();\\n\\t\\tvar m=today.getMinutes();\\n\\t\\tvar s=today.getSeconds();\\n\\t\\t// add a zero in front of numbers<10\\n\\t\\tm=checkTime(m);\\n\\t\\ts=checkTime(s);\\n\\t\\tdocument.getElementById(\\\'txt\\\').innerHTML=h+":"+m+":"+s;\\n\\t\\tt=setTimeout(\\\'startTime()\\\',500);\\n\\t\\t}\\n\\n\\t\\tfunction checkTime(i)\\n\\t\\t{\\n\\t\\tif (i<10)\\n\\t\\t  {\\n\\t\\t    i="0" + i;\\n\\t\\t      }\\n\\t\\t      return i;\\n\\t\\t      }\\n      </script>\\n</head>\\n<body onload="startTime()"> \\n\\n\', escape=False)\nresponse.write(\'<!DOCTYPE html PUBLIC "-//W3C//DTD XHTML 1.0 Strict//EN" "http://www.w3.org/TR/xhtml1/DTD/xhtml1-strict.dtd">\\n<!--\\n\\tDesign by Free CSS Templates\\n\\thttp://www.freecsstemplates.org\\n\\tReleased for free under a Creative Commons Attribution 2.5 License\\n-->\\n<html xmlns="http://www.w3.org/1999/xhtml">\\n <head>\\n  <title>\\n   \', escape=False)\nresponse.write(response.title or request.application)\nresponse.write(\'\\n  </title>\\n  \', escape=False)\nresponse.files.append(URL(request.application,\'static\',\'plugin_layouts/layouts/Civilized/default.css\'))\nresponse.write(\'\\n\', escape=False)\nresponse.files.insert(0,URL(r=request,c=\'static\',f=\'jquery.js\'))\nresponse.files.insert(1,URL(r=request,c=\'static\',f=\'calendar.css\'))\nresponse.files.insert(2,URL(r=request,c=\'static\',f=\'calendar.js\'))\nfor _item in response.meta or []:\n    response.write(\'\\n     <meta name="\', escape=False)\n    response.write(_item)\n    response.write(\'" content="\', escape=False)\n    response.write(response.meta[_item])\n    response.write(\'" />\', escape=False)\n    pass\nfor _k,_file in enumerate(response.files or []):\n    if _file in response.files[:_k]:\n        continue\n    elif _file.lower().endswith(\'.css\'):\n        response.write(\'\\n     <link href="\', escape=False)\n        response.write(_file)\n        response.write(\'" rel="stylesheet" type="text/css" />\', escape=False)\n    elif _file.lower().endswith(\'.js\'):\n        response.write(\'\\n     <script src="\', escape=False)\n        response.write(_file)\n        response.write(\'" type="text/javascript"></script>\', escape=False)\n        pass\n    pass\nresponse.write(\'\\n<script type="text/javascript"><!--\\nfunction popup(url) {\\n  newwindow=window.open(url,\\\'name\\\',\\\'height=400,width=600\\\');\\n  if (window.focus) newwindow.focus();\\n  return false;\\n}\\nfunction collapse(id) { jQuery(\\\'#\\\'+id).slideToggle(); }\\nfunction fade(id,value) { if(value>0) jQuery(\\\'#\\\'+id).hide().fadeIn(\\\'slow\\\'); else jQuery(\\\'#\\\'+id).show().fadeOut(\\\'slow\\\'); }\\nfunction ajax(u,s,t) {\\n    query = \\\'\\\';\\n    if (typeof s == "string") {\\n        d = jQuery(s).serialize();\\n        if(d){ query = d; }\\n    } else {\\n        pcs = [];\\n        for(i=0; i<s.length; i++) {\\n            q = jQuery("#"+s[i]).serialize();\\n            if(q){pcs.push(q);}\\n        }\\n        if (pcs.length>0){query = pcs.join("&");}\\n    }\\n    jQuery.ajax({type: "POST", url: u, data: query, success: function(msg) { if(t) { if(t==\\\':eval\\\') eval(msg); else jQuery("#" + t).html(msg); } } }); \\n}\\nString.prototype.reverse = function () { return this.split(\\\'\\\').reverse().join(\\\'\\\');};\\nfunction web2py_ajax_init() {\\n  jQuery(\\\'.hidden\\\').hide();\\n  jQuery(\\\'.error\\\').hide().slideDown(\\\'slow\\\');\\n  jQuery(\\\'.flash\\\').click(function() { jQuery(this).fadeOut(\\\'slow\\\'); return false; });\\n  jQuery(\\\'input.integer\\\').keyup(function(){this.value=this.value.reverse().replace(/[^0-9\\\\-]|\\\\-(?=.)/g,\\\'\\\').reverse();});\\n  jQuery(\\\'input.double\\\').keyup(function(){this.value=this.value.reverse().replace(/[^0-9\\\\-\\\\.]|[\\\\-](?=.)|[\\\\.](?=[0-9]*[\\\\.])/g,\\\'\\\').reverse();});\\n  jQuery("input[type=\\\'checkbox\\\'].delete").each(function(){jQuery(this).click(function() { if(this.checked) if(!confirm("\', escape=False)\nresponse.write(T(\'Sure you want to delete this object?\'))\nresponse.write(\'")) this.checked=false; });});\\n  try {jQuery("input.date").focus( function() {Calendar.setup({\\n     inputField:this.id, ifFormat:"\', escape=False)\nresponse.write(T(\'%Y-%m-%d\'))\nresponse.write(\'", showsTime:false\\n  }); }); } catch(e) {};\\n  try { jQuery("input.datetime").focus( function() {Calendar.setup({\\n     inputField:this.id, ifFormat:"\', escape=False)\nresponse.write(T(\'%Y-%m-%d %H:%M:%S\'))\nresponse.write(\'", showsTime: true,timeFormat: "24"\\n  }); }); } catch(e) {};\\n  try { jQuery("input.time").clockpick({\\n      starthour:0, endhour:23, showminutes:true, military:true\\n  }); } catch(e) {};\\n};\\njQuery(document).ready(function(){\\n   jQuery(\\\'.flash\\\').hide();\\n   if(jQuery(\\\'.flash\\\').html()!=\\\'\\\') jQuery(\\\'.flash\\\').slideDown(\\\'slow\\\');\\n   web2py_ajax_init();});\\n\\nfunction web2py_trap_form(action,target) {\\n   jQuery(\\\'#\\\'+target+\\\' form\\\').each(function(i){\\n      var form=jQuery(this);\\n      if(!form.hasClass(\\\'no_trap\\\'))\\n        form.submit(function(obj){\\n         jQuery(\\\'.flash\\\').hide().html(\\\'\\\');\\n         web2py_ajax_page(\\\'post\\\',action,form.serialize(),target);\\n         return false;\\n      });\\n   });\\n}\\n\\nfunction web2py_ajax_page(method,action,data,target) {\\n  jQuery.ajax({\\\'type\\\':method,\\\'url\\\':action,\\\'data\\\':data,\\n    \\\'beforeSend\\\':function(xhr){\\n      xhr.setRequestHeader(\\\'web2py-component-location\\\',document.location);\\n      xhr.setRequestHeader(\\\'web2py-component-element\\\',target);},\\n    \\\'complete\\\':function(xhr,text){\\n      command=xhr.getResponseHeader(\\\'web2py-component-command\\\');\\n      if(command) eval(command);\\n      flash=xhr.getResponseHeader(\\\'web2py-component-flash\\\');\\n      if(flash) jQuery(\\\'.flash\\\').html(flash).slideDown();\\n      },\\n    \\\'success\\\': function(text) {\\n      jQuery(\\\'#\\\'+target).html(text);\\n      web2py_trap_form(action,target);\\n      web2py_ajax_init();\\n      }\\n    });\\n}\\nfunction web2py_component(action,target) {\\n    jQuery(document).ready(function(){ web2py_ajax_page(\\\'get\\\',action,null,target); });\\n}\\n//--></script>\\n\', escape=False)\nresponse.write(\'\\n  <style>\\n   .flash {\\n    z-index: 2;\\n    position: absolute;\\n    top: 0px;\\n    right: 20%;\\n    width: 60%;\\n    height: 50px;\\n    opacity: 0.75;\\n    margin: 0 auto;\\n    text-align: center;\\n    clear: both;\\n    border: 1px #000000 solid;\\n    color: black;\\n    font-size: 12pt;\\n    padding: 100px 10px 10px 10px;\\n    cursor: pointer;\\n    background: white;\\n\\n}\\ndiv.error {\\n    background-color: red;\\n    color: white;\\n    padding: 3px;\\n}\\n  </style>\\n </head>\\n <body>\\n  <div id="outer">\\n   <div id="header">\\n    <h1>\\n     \', escape=False)\nresponse.write(response.title or request.application)\nresponse.write(\'\\n    </h1>\\n    <h2>\\n     \', escape=False)\nresponse.write(response.subtitle or \'=response.subtitle\')\nresponse.write(\'\\n    </h2>\\n   </div>\\n   <div id="menu">\\n    \', escape=False)\nresponse.write(MENU(response.menu))\nresponse.write(\'\\n   </div>\\n   <div id="content">\\n    <div class="flash">\', escape=False)\nresponse.write(response.flash or \'\')\nresponse.write(\'</div>\\n    \', escape=False)\nresponse.write(\'\\n<h4 id="txt" align="right"></h4>\\n\', escape=False)\nresponse.write(form)\nresponse.write(\'\\n\', escape=False)\nif len(list) > 0:\n    response.write(\'\\n<table>\\n\\t<tr width>\\n\\t\\t<th width="20%"> pid </th>\\n\\t\\t<th width="40%"> parameter </th>\\n\\t\\t<th width="40%"> value</th>\\n\\t</tr>\\n\\t\', escape=False)\n    for l in list:\n        response.write(\'\\n\\t<tr>\\n\\t\\t<td> \', escape=False)\n        response.write(l[0])\n        response.write(\' </td>\\n\\t\\t<td> \', escape=False)\n        response.write(l[1])\n        response.write(\' </td>\\n\\t\\t<td> \', escape=False)\n        response.write(l[2])\n        response.write(\' </td>\\n\\t</tr>\\n\\t\', escape=False)\n        pass\n    response.write(\'\\n</table>\\n<table>\\n\\t<tr>\\n\\t\\t<th colspan="5"> INSTRUCTION </td>\\n\\t</tr>\\n\\t<tr>\\n\\t\\t<th> Name </th> <th> References </th> <th> Hits </th> <th> Misses </th> <th> Miss rate </th>\\n\\t</tr>\\n\\t<tr>\\n\\t\\t<td> I1 </td> <td> \', escape=False)\n    response.write(list[0][2])\n    response.write(\' </td> <td> \', escape=False)\n    response.write(int(list[0][2]))\n    response.write(\' </td> <td> \', escape=False)\n    response.write(list[1][2])\n    response.write(\' </td> <td> \', escape=False)\n    response.write(list[3][2])\n    response.write(\' </td>\\n\\t</tr>\\n</table>\\n\', escape=False)\n    pass\nresponse.write(\'\\n\', escape=False)\nif len(list) == 0 and flag==1 :\n    response.write(\'\\n<h3> There was some error in the Input provided . Please try again with a valid input </h3>\\n\', escape=False)\n    pass\nresponse.write(\'\\n</body>\\n</html>\\n\\n\', escape=False)\nresponse.write(\'\\n   </div>\\n   <div id="footer">\\n    <p>\\n     Copyright &copy; 2006 Sitename.com. Designed by\\n     <a href="http://www.freecsstemplates.org">\\n      Free CSS Templates\\n     </a>\\n    </p>\\n   </div>\\n  </div>\\n </body>\\n</html>\\n\', escape=False)'
p6
sS'snapshot'
p7
(dp8
S'exception'
p9
(dp10
S'__hash__'
p11
S"<method-wrapper '__hash__' of exceptions.ValueError object>"
p12
sS'__setattr__'
p13
S"<method-wrapper '__setattr__' of exceptions.ValueError object>"
p14
sS'__reduce_ex__'
p15
S'<built-in method __reduce_ex__ of exceptions.ValueError object>'
p16
sS'__getslice__'
p17
S"<method-wrapper '__getslice__' of exceptions.ValueError object>"
p18
sS'__getitem__'
p19
S"<method-wrapper '__getitem__' of exceptions.ValueError object>"
p20
sS'__setstate__'
p21
S'<built-in method __setstate__ of exceptions.ValueError object>'
p22
sS'__reduce__'
p23
S'<built-in method __reduce__ of exceptions.ValueError object>'
p24
sS'__str__'
p25
S"<method-wrapper '__str__' of exceptions.ValueError object>"
p26
sS'__format__'
p27
S'<built-in method __format__ of exceptions.ValueError object>'
p28
sS'__getattribute__'
p29
S"<method-wrapper '__getattribute__' of exceptions.ValueError object>"
p30
sS'__class__'
p31
S"<type 'exceptions.ValueError'>"
p32
sS'__unicode__'
p33
S'<built-in method __unicode__ of exceptions.ValueError object>'
p34
sS'__delattr__'
p35
S"<method-wrapper '__delattr__' of exceptions.ValueError object>"
p36
sS'__subclasshook__'
p37
S'<built-in method __subclasshook__ of type object>'
p38
sS'__repr__'
p39
S"<method-wrapper '__repr__' of exceptions.ValueError object>"
p40
sS'args'
p41
S'("invalid literal for int() with base 10: \'298,934\'",)'
p42
sS'__dict__'
p43
S'{}'
p44
sS'__sizeof__'
p45
S'<built-in method __sizeof__ of exceptions.ValueError object>'
p46
sS'__doc__'
p47
S"'Inappropriate argument value (of correct type).'"
p48
sS'__init__'
p49
S"<method-wrapper '__init__' of exceptions.ValueError object>"
p50
sS'__new__'
p51
S'<built-in method __new__ of type object>'
p52
ssS'evalue'
p53
S"invalid literal for int() with base 10: '298,934'"
p54
sS'request'
p55
(dp56
S'function'
p57
S"'index'"
p58
sS'body'
p59
S"<open file '<fdopen>', mode 'w+b'>"
p60
sS'wsgi'
p61
S"<Storage {'start_response': <function <lambda> a...ING': 'gzip,deflate', 'HTTP_KEEP_ALIVE': '115'}}>"
p62
sS'extension'
p63
S"'html'"
p64
sS'vars'
p65
S"<Storage {'i1_associativity': '2', 'd1_size': '6...ciativity': '2', '_formname': 'programs_create'}>"
p66
sS'cid'
p67
S'None'
p68
sS'url'
p69
S'<gluon.html.XML object>'
p70
sg41
S'[]'
p71
sS'controller'
p72
S"'default'"
p73
sS'cookies'
p74
S"<SimpleCookie: session_id_admin='127-0-0-1-4555d...'127-0-0-1-aeb537c5-7800-4550-9358-f0f4f45f265c'>"
p75
sS'application'
p76
S"'vlab'"
p77
sS'ajax'
p78
S'False'
p79
sS'client'
p80
S"'127.0.0.1'"
p81
sS'env'
p82
S"<Storage {'content_length': '6184', 'http_user_a...te', 'query_string': '', 'wsgi_run_once': False}>"
p83
sS'raw_args'
p84
S'None'
p85
sS'get_vars'
p86
S'<Storage {}>'
p87
sS'folder'
p88
S"'/home/shrenik/web2py/applications/vlab/'"
p89
sS'now'
p90
S'datetime.datetime(2010, 10, 21, 1, 38, 29, 865762)'
p91
sS'post_vars'
p92
S"<Storage {'i1_associativity': '2', 'd1_size': '6...ciativity': '2', '_formname': 'programs_create'}>"
p93
ssS'frames'
p94
(lp95
(dp96
S'file'
p97
S'/home/shrenik/web2py/gluon/restricted.py'
p98
sS'dump'
p99
(dp100
S'environment'
p101
S"{'A': <class 'gluon.html.A'>, 'Auth': <class 'gluon.tools.Auth'>, 'B': <class 'gluon.html.B'>, 'BEAUTIFY': <class 'gluon.html.BEAUTIFY'>, 'BODY': <class 'gluon.html.BODY'>, 'BR': <class 'gluon.html.BR'>, 'CENTER': <class 'gluon.html.CENTER'>, 'CLEANUP': <class 'gluon.validators.CLEANUP'>, 'CODE': <class 'gluon.html.CODE'>, 'CRYPT': <class 'gluon.validators.CRYPT'>, ...}"
p102
sS'ccode'
p103
S'<code object <module> at 0x980ef98, file "/home/...lications/vlab/views/default/index.html", line 1>'
p104
ssS'lnum'
p105
I188
sS'lines'
p106
(dp107
I192
S'        # XXX Show exception in Wing IDE if running in debugger'
p108
sI183
S'        if type(code) == types.CodeType:'
p109
sI184
S'            ccode = code'
p110
sI185
S'        else:'
p111
sI186
S'            ccode = compile2(code,layer)'
p112
sI187
S''
sI188
S'        exec ccode in environment'
p113
sI189
S'    except HTTP:'
p114
sI190
S'        raise'
p115
sI191
S'    except Exception:'
p116
ssS'call'
p117
S'(code=\'response.write(\\\'<html>\\\\n<head>\\\\n\\\\t<script type="...v>\\\\n  </div>\\\\n </body>\\\\n</html>\\\\n\\\', escape=False)\', environment={\'A\': <class \'gluon.html.A\'>, \'Auth\': <class \'gluon.tools.Auth\'>, \'B\': <class \'gluon.html.B\'>, \'BEAUTIFY\': <class \'gluon.html.BEAUTIFY\'>, \'BODY\': <class \'gluon.html.BODY\'>, \'BR\': <class \'gluon.html.BR\'>, \'CENTER\': <class \'gluon.html.CENTER\'>, \'CLEANUP\': <class \'gluon.validators.CLEANUP\'>, \'CODE\': <class \'gluon.html.CODE\'>, \'CRYPT\': <class \'gluon.validators.CRYPT\'>, ...}, layer=\'/home/shrenik/web2py/applications/vlab/views/default/index.html\')'
p118
sS'func'
p119
S'restricted'
p120
sa(dp121
g97
S'/home/shrenik/web2py/applications/vlab/views/default/index.html'
p122
sg99
(dp123
S'html'
p124
S'undefined'
p125
ssg105
I63
sg106
(dp126
I64
S"    response.write(' </td> <td> ', escape=False)"
p127
sI65
S'    response.write(list[1][2])'
p128
sI66
S"    response.write(' </td> <td> ', escape=False)"
p129
sI67
S'    response.write(list[3][2])'
p130
sI68
S"    response.write(' </td>\\n\\t</tr>\\n</table>\\n', escape=False)"
p131
sI69
S'    pass'
p132
sI70
S"response.write('\\n', escape=False)"
p133
sI71
S'if len(list) == 0 and flag==1 :'
p134
sI72
S"    response.write('\\n<h3> There was some error in the Input provided . Please try again with a valid input </h3>\\n', escape=False)"
p135
sI73
S'    pass'
p136
sI54
S"        response.write(' </td>\\n\\t\\t<td> ', escape=False)"
p137
sI55
S'        response.write(l[1])'
p138
sI56
S"        response.write(' </td>\\n\\t\\t<td> ', escape=False)"
p139
sI57
S'        response.write(l[2])'
p140
sI58
S"        response.write(' </td>\\n\\t</tr>\\n\\t', escape=False)"
p141
sI59
S'        pass'
p142
sI60
S'    response.write(\'\\n</table>\\n<table>\\n\\t<tr>\\n\\t\\t<th colspan="5"> INSTRUCTION </td>\\n\\t</tr>\\n\\t<tr>\\n\\t\\t<th> Name </th> <th> References </th> <th> Hits </th> <th> Misses </th> <th> Miss rate </th>\\n\\t</tr>\\n\\t<tr>\\n\\t\\t<td> I1 </td> <td> \', escape=False)'
p143
sI61
S'    response.write(list[0][2])'
p144
sI62
S"    response.write(' </td> <td> ', escape=False)"
p145
sI63
S'    response.write(int(list[0][2]))'
p146
ssg117
S'()'
p147
sg119
S'<module>'
p148
sasS'pyver'
p149
S'Python 2.6.6: /usr/bin/python'
p150
sS'session'
p151
(dp152
S'auth'
p153
S'None'
p154
sS'_formkey[programs_create]'
p155
S"'6c6f4444-1c8f-43d6-bd7f-0bfe0a28727c'"
p156
ssS'etype'
p157
S"<type 'exceptions.ValueError'>"
p158
sS'date'
p159
S'Thu Oct 21 01:38:30 2010'
p160
sS'response'
p161
(dp162
S'status'
p163
S'200'
p164
sg59
S'<cStringIO.StringO object>'
p165
sg74
S"<SimpleCookie: session_id_vlab='127-0-0-1-aeb537c5-7800-4550-9358-f0f4f45f265c'>"
p166
sS'_vars'
p167
S"{'flag': 1, 'form': <gluon.sqlhtml.SQLFORM object>, 'list': [('9394', 'I   refs', '298,934'), ('9394', 'I1  misses', '1,075'), ('9394', 'L2i misses', '1,037'), ('9394', 'I1  miss rate', '0.35%'), ('9394', 'L2i miss rate', '0.34%'), ('9394', 'D   refs', '151,163  (102,760 rd   + 48,403 wr)'), ('9394', 'D1  misses', '2,258  (  1,930 rd   +    328 wr)'), ('9394', 'L2d misses', '1,787  (  1,505 rd   +    282 wr)'), ('9394', 'D1  miss rate', '1.4% (    1.8%     +    0.6%  )'), ('9394', 'L2d miss rate', '1.1% (    1.4%     +    0.5%  )'), ('9394', 'L2 refs', '3,333  (  3,005 rd   +    328 wr)'), ('9394', 'L2 misses', '2,824  (  2,542 rd   +    282 wr)'), ('9394', 'L2 miss rate', '0.6% (    0.6%     +    0.5%  )')], 'message': <lazyT 'Hello World'>, 'pid': ['9394']}"
p168
sS'title'
p169
S"'vlab'"
p170
sS'session_file'
p171
S"<open file '/home/shrenik/web2py/applications/vl...eb537c5-7800-4550-9358-f0f4f45f265c', mode 'rb+'>"
p172
sS'flash'
p173
S"<lazyT 'Welcome to web2py'>"
p174
sS'_custom_rollback'
p175
S'None'
p176
sS'session_id'
p177
S"'127-0-0-1-aeb537c5-7800-4550-9358-f0f4f45f265c'"
p178
sS'headers'
p179
S"<Storage {'Expires': 'Wed, 20 Oct 2010 20:08:29 ...he, must-revalidate, post-check=0, pre-check=0'}>"
p180
sS'meta'
p181
S"<Storage {'keywords': 'bla bla bla', 'description': 'describe your app', 'author': 'you'}>"
p182
sS'session_filename'
p183
S"'/home/shrenik/web2py/applications/vlab/sessions/127-0-0-1-aeb537c5-7800-4550-9358-f0f4f45f265c'"
p184
sS'postprocessing'
p185
S'[]'
p186
sS'menu'
p187
S"[(<lazyT 'Index'>, False, <gluon.html.XML object>, []), ('Change Layout', False, <gluon.html.XML object>)]"
p188
sS'_view_environment'
p189
S"{'A': <class 'gluon.html.A'>, 'Auth': <class 'gluon.tools.Auth'>, 'B': <class 'gluon.html.B'>, 'BEAUTIFY': <class 'gluon.html.BEAUTIFY'>, 'BODY': <class 'gluon.html.BODY'>, 'BR': <class 'gluon.html.BR'>, 'CENTER': <class 'gluon.html.CENTER'>, 'CLEANUP': <class 'gluon.validators.CLEANUP'>, 'CODE': <class 'gluon.html.CODE'>, 'CRYPT': <class 'gluon.validators.CRYPT'>, ...}"
p190
sS'subtitle'
p191
S"<lazyT 'customize me!'>"
p192
sS'session_id_name'
p193
S"'session_id_vlab'"
p194
sS'_custom_commit'
p195
S'None'
p196
sS'_caller'
p197
S'<function <lambda>>'
p198
sS'files'
p199
S'[<gluon.html.XML object>, <gluon.html.XML object>, <gluon.html.XML object>, <gluon.html.XML object>]'
p200
sS'view'
p201
S"'default/index.html'"
p202
ssS'locals'
p203
(dp204
S'Service'
p205
S'<class gluon.tools.Service>'
p206
sS'OBJECT'
p207
S"<class 'gluon.html.OBJECT'>"
p208
sS'_file'
p209
S'<gluon.html.XML object>'
p210
sS'SQLDB'
p211
S"<class 'gluon.sql.SQLDB'>"
p212
sg151
S"<Storage {'auth': None, '_formkey[programs_create]': '6c6f4444-1c8f-43d6-bd7f-0bfe0a28727c'}>"
p213
sS'LINK'
p214
S"<class 'gluon.html.LINK'>"
p215
sS'BR'
p216
S"<class 'gluon.html.BR'>"
p217
sS'local_import'
p218
S'<function <lambda>>'
p219
sS'OPTGROUP'
p220
S"<class 'gluon.html.OPTGROUP'>"
p221
sS'PRE'
p222
S"<class 'gluon.html.PRE'>"
p223
sS'IS_INT_IN_RANGE'
p224
S"<class 'gluon.validators.IS_INT_IN_RANGE'>"
p225
sS'IS_LOWER'
p226
S"<class 'gluon.validators.IS_LOWER'>"
p227
sS'IS_STRONG'
p228
S"<class 'gluon.validators.IS_STRONG'>"
p229
sS'Recaptcha'
p230
S"<class 'gluon.tools.Recaptcha'>"
p231
sS'cache'
p232
S'<gluon.cache.Cache object>'
p233
sS'IS_IN_DB'
p234
S"<class 'gluon.validators.IS_IN_DB'>"
p235
sS'TAG'
p236
S'<gluon.html.__TAG__ object>'
p237
sS'_k'
p238
S'3'
sS'SQLField'
p239
S"<class 'gluon.sql.Field'>"
p240
sS'mail'
p241
S'<gluon.tools.Mail object>'
p242
sS'BODY'
p243
S"<class 'gluon.html.BODY'>"
p244
sS'IS_DATE_IN_RANGE'
p245
S"<class 'gluon.validators.IS_DATE_IN_RANGE'>"
p246
sS'TH'
p247
S"<class 'gluon.html.TH'>"
p248
sS'URL'
p249
S'<function _URL>'
p250
sS'db'
p251
S"<SQLDB {'_connection': <sqlite3.Connection objec...0x99f69ac>}>, '_migrate': True, '_pool_size': 0}>"
p252
sS'auth'
p253
S'<gluon.tools.Auth object>'
p254
sS'P'
S"<class 'gluon.html.P'>"
p255
sS'TFOOT'
p256
S"<class 'gluon.html.TFOOT'>"
p257
sS'XHTML'
p258
S"<class 'gluon.html.XHTML'>"
p259
sS'killed'
p260
S'0'
sS'ON'
p261
S'True'
p262
sS'OL'
p263
S"<class 'gluon.html.OL'>"
p264
sS'TEXTAREA'
p265
S"<class 'gluon.html.TEXTAREA'>"
p266
sS'MENU'
p267
S"<class 'gluon.html.MENU'>"
p268
sS'list'
p269
S"[('9394', 'I   refs', '298,934'), ('9394', 'I1  misses', '1,075'), ('9394', 'L2i misses', '1,037'), ('9394', 'I1  miss rate', '0.35%'), ('9394', 'L2i miss rate', '0.34%'), ('9394', 'D   refs', '151,163  (102,760 rd   + 48,403 wr)'), ('9394', 'D1  misses', '2,258  (  1,930 rd   +    328 wr)'), ('9394', 'L2d misses', '1,787  (  1,505 rd   +    282 wr)'), ('9394', 'D1  miss rate', '1.4% (    1.8%     +    0.6%  )'), ('9394', 'L2d miss rate', '1.1% (    1.4%     +    0.5%  )'), ('9394', 'L2 refs', '3,333  (  3,005 rd   +    328 wr)'), ('9394', 'L2 misses', '2,824  (  2,542 rd   +    282 wr)'), ('9394', 'L2 miss rate', '0.6% (    0.6%     +    0.5%  )')]"
p270
sS'l'
S"('9394', 'L2 miss rate', '0.6% (    0.6%     +    0.5%  )')"
p271
sS'LOAD'
p272
S'<gluon.compileapp.LoadFactory instance>'
p273
sS'CODE'
p274
S"<class 'gluon.html.CODE'>"
p275
sS'HTTP'
p276
S"<class 'gluon.http.HTTP'>"
p277
sS'HR'
p278
S"<class 'gluon.html.HR'>"
p279
sS'IS_DATETIME'
p280
S"<class 'gluon.validators.IS_DATETIME'>"
p281
sS'HEAD'
p282
S"<class 'gluon.html.HEAD'>"
p283
sS'LABEL'
p284
S"<class 'gluon.html.LABEL'>"
p285
sS'CLEANUP'
p286
S"<class 'gluon.validators.CLEANUP'>"
p287
sS'plugins'
p288
S'<gluon.tools.PluginManager object>'
p289
sS'SELECT'
p290
S"<class 'gluon.html.SELECT'>"
p291
sS'CENTER'
p292
S"<class 'gluon.html.CENTER'>"
p293
sS'prettydate'
p294
S'<function prettydate>'
p295
sS'Crud'
p296
S"<class 'gluon.tools.Crud'>"
p297
sS'Auth'
p298
S"<class 'gluon.tools.Auth'>"
p299
sS'__builtins__'
p300
S"{'ArithmeticError': <type 'exceptions.ArithmeticError'>, 'AssertionError': <type 'exceptions.AssertionError'>, 'AttributeError': <type 'exceptions.AttributeError'>, 'BaseException': <type 'exceptions.BaseException'>, 'BufferError': <type 'exceptions.BufferError'>, 'BytesWarning': <type 'exceptions.BytesWarning'>, 'DeprecationWarning': <type 'exceptions.DeprecationWarning'>, 'EOFError': <type 'exceptions.EOFError'>, 'Ellipsis': Ellipsis, 'EnvironmentError': <type 'exceptions.EnvironmentError'>, ...}"
p301
sS'IS_LIST_OF'
p302
S"<class 'gluon.validators.IS_LIST_OF'>"
p303
sS'SQLFORM'
p304
S"<class 'gluon.sqlhtml.SQLFORM'>"
p305
sS'_item'
p306
S"'author'"
p307
sS'EM'
p308
S"<class 'gluon.html.EM'>"
p309
sS'redirect'
p310
S'<function redirect>'
p311
sS'FIELDSET'
p312
S"<class 'gluon.html.FIELDSET'>"
p313
sS'IS_EQUAL_TO'
p314
S"<class 'gluon.validators.IS_EQUAL_TO'>"
p315
sS'embed64'
p316
S'<function embed64>'
p317
sS'INPUT'
p318
S"<class 'gluon.html.INPUT'>"
p319
sS'EMBED'
p320
S"<class 'gluon.html.EMBED'>"
p321
sS'FORM'
p322
S"<class 'gluon.html.FORM'>"
p323
sS'H2'
p324
S"<class 'gluon.html.H2'>"
p325
sS'H3'
p326
S"<class 'gluon.html.H3'>"
p327
sS'H1'
p328
S"<class 'gluon.html.H1'>"
p329
sS'H6'
p330
S"<class 'gluon.html.H6'>"
p331
sS'H4'
p332
S"<class 'gluon.html.H4'>"
p333
sS'H5'
p334
S"<class 'gluon.html.H5'>"
p335
sS'UL'
p336
S"<class 'gluon.html.UL'>"
p337
sS'IS_UPPER'
p338
S"<class 'gluon.validators.IS_UPPER'>"
p339
sS'xmlescape'
p340
S'<function xmlescape>'
p341
sS'IS_TIME'
p342
S"<class 'gluon.validators.IS_TIME'>"
p343
sS'OPTION'
p344
S"<class 'gluon.html.OPTION'>"
p345
sS'TITLE'
p346
S"<class 'gluon.html.TITLE'>"
p347
sS'CRYPT'
p348
S"<class 'gluon.validators.CRYPT'>"
p349
sS'IS_EMPTY_OR'
p350
S"<class 'gluon.validators.IS_EMPTY_OR'>"
p351
sS'MARKMIN'
p352
S"<class 'gluon.html.MARKMIN'>"
p353
sS'message'
p354
S"<lazyT 'Hello World'>"
p355
sS'service'
p356
S'<gluon.tools.Service instance>'
p357
sS'SCRIPT'
p358
S"<class 'gluon.html.SCRIPT'>"
p359
sS'geocode'
p360
S'<function geocode>'
p361
sS'TABLE'
p362
S"<class 'gluon.html.TABLE'>"
p363
sS'IS_IPV4'
p364
S"<class 'gluon.validators.IS_IPV4'>"
p365
sS'IS_LENGTH'
p366
S"<class 'gluon.validators.IS_LENGTH'>"
p367
sS'XML'
p368
S"<class 'gluon.html.XML'>"
p369
sS'B'
S"<class 'gluon.html.B'>"
p370
sS'form'
p371
S'<gluon.sqlhtml.SQLFORM object>'
p372
sS'SQLTABLE'
p373
S"<class 'gluon.sqlhtml.SQLTABLE'>"
p374
sS'IS_MATCH'
p375
S"<class 'gluon.validators.IS_MATCH'>"
p376
sS'IS_ALPHANUMERIC'
p377
S"<class 'gluon.validators.IS_ALPHANUMERIC'>"
p378
sS'flag'
p379
S'1'
sS'SPAN'
p380
S"<class 'gluon.html.SPAN'>"
p381
sS'IS_SLUG'
p382
S"<class 'gluon.validators.IS_SLUG'>"
p383
sS'BEAUTIFY'
p384
S"<class 'gluon.html.BEAUTIFY'>"
p385
sS'META'
p386
S"<class 'gluon.html.META'>"
p387
sS'fetch'
p388
S'<function fetch>'
p389
sS'IS_DATE'
p390
S"<class 'gluon.validators.IS_DATE'>"
p391
sS'IS_EMAIL'
p392
S"<class 'gluon.validators.IS_EMAIL'>"
p393
sS'IS_NOT_EMPTY'
p394
S"<class 'gluon.validators.IS_NOT_EMPTY'>"
p395
sg55
S"<Storage {'function': 'index', 'body': <open fil...ativity': '2', '_formname': 'programs_create'}>}>"
p396
sS'pid'
p397
S"['9394']"
p398
sS'TBODY'
p399
S"<class 'gluon.html.TBODY'>"
p400
sS'Field'
p401
S"<class 'gluon.sql.Field'>"
p402
sS'Mail'
p403
S"<class 'gluon.tools.Mail'>"
p404
sS'DIV'
p405
S"<class 'gluon.html.DIV'>"
p406
sS'LEGEND'
p407
S"<class 'gluon.html.LEGEND'>"
p408
sS'IMG'
p409
S"<class 'gluon.html.IMG'>"
p410
sS'DAL'
p411
S'<function DAL>'
p412
sS'TT'
p413
S"<class 'gluon.html.TT'>"
p414
sS'TR'
p415
S"<class 'gluon.html.TR'>"
p416
sS'LI'
p417
S"<class 'gluon.html.LI'>"
p418
sS'IFRAME'
p419
S"<class 'gluon.html.IFRAME'>"
p420
sS'TD'
p421
S"<class 'gluon.html.TD'>"
p422
sS'PluginManager'
p423
S"<class 'gluon.tools.PluginManager'>"
p424
sS'IS_URL'
p425
S"<class 'gluon.validators.IS_URL'>"
p426
sS'A'
S"<class 'gluon.html.A'>"
p427
sS'STYLE'
p428
S"<class 'gluon.html.STYLE'>"
p429
sS'IS_DATETIME_IN_RANGE'
p430
S"<class 'gluon.validators.IS_DATETIME_IN_RANGE'>"
p431
sS'HTML'
p432
S"<class 'gluon.html.HTML'>"
p433
sS'IS_IMAGE'
p434
S"<class 'gluon.validators.IS_IMAGE'>"
p435
sS'I'
S"<class 'gluon.html.I'>"
p436
sS'crud'
p437
S'<gluon.tools.Crud object>'
p438
sS'IS_NOT_IN_DB'
p439
S"<class 'gluon.validators.IS_NOT_IN_DB'>"
p440
sg161
S"<Storage {'status': 200, 'body': <cStringIO.Stri...object at 0x99f446c>], '_custom_rollback': None}>"
p441
sS'THEAD'
p442
S"<class 'gluon.html.THEAD'>"
p443
sS'IS_NULL_OR'
p444
S"<class 'gluon.validators.IS_EMPTY_OR'>"
p445
sS'IS_FLOAT_IN_RANGE'
p446
S"<class 'gluon.validators.IS_FLOAT_IN_RANGE'>"
p447
sS'IS_EXPR'
p448
S"<class 'gluon.validators.IS_EXPR'>"
p449
sS'T'
S'<gluon.languages.translator object>'
p450
sS'IS_IN_SET'
p451
S"<class 'gluon.validators.IS_IN_SET'>"
p452
sS'IS_UPLOAD_FILENAME'
p453
S"<class 'gluon.validators.IS_UPLOAD_FILENAME'>"
p454
sS'IS_DECIMAL_IN_RANGE'
p455
S"<class 'gluon.validators.IS_DECIMAL_IN_RANGE'>"
p456
sssS'traceback'
p457
S'Traceback (most recent call last):\n  File "/home/shrenik/web2py/gluon/restricted.py", line 188, in restricted\n    exec ccode in environment\n  File "/home/shrenik/web2py/applications/vlab/views/default/index.html", line 63, in <module>\n    </html>\nValueError: invalid literal for int() with base 10: \'298,934\'\n'
p458
s.