(dp1
S'output'
p2
S''
sS'layer'
p3
S'/home/shrenik/web2py/applications/vlab/controllers/default.py'
p4
sS'code'
p5
S'\n#########################################################################\n## This is a samples controller\n## - index is the default action of any application\n## - user is required for authentication and authorization\n## - download is for downloading files uploaded in the db (does streaming)\n## - call exposes all registered services (none by default)\n#########################################################################  \n@auth.requires_login()\ndef index():\n    import os\n    import re\n    import commands\n    """\n    example action using the internationalization operator T and flash\n    rendered by views/default/index.html or views/generic.html\n    """\n    if session.i1_ass :\n\t    print session.i1_ass\n\t    db.programs.i1_associativity.default=session.i1_ass\n    pid=[]\n    values={}\n    flag=0\n    compile=True\n    list=[]\n    out="Test"\n    inp=None\n    out_mod=None\n    input_path=""; i1_s=0\n    form=SQLFORM(db.programs)\n    if(form.accepts(request.vars,session)):\n\t session.i1_ass=form.vars.i1_associativity\n         flag=1\n\t path=os.getcwd()\n         path=path+\'/applications/vlab/uploads/\'#+form.vars.file\n         inp=commands.getstatusoutput(\'cc \'+path+form.vars.file+\' -o\'+path+str(auth.user.id))\n\t if inp[0] != 0:\n\t\t compile=False\n\t i1_s=form.vars.i1_size * 1024; values["i1_s"]=i1_s\n\t d1_s=form.vars.d1_size * 1024; values["d1_s"]=d1_s\n\t l2_s=form.vars.l2_size * 1024; values["l2_s"]=l2_s\n\t values["compile"]=compile; values["input"]=""\n\t if compile==True:\n          command=\'valgrind --tool=cachegrind --I1=\'+str(i1_s)+\',\'+str(form.vars.i1_associativity)+\',\'+str(form.vars.i1_line_size)+ \' --cachegrind-out-file=\'+path+str(auth.user.id)+\'.%p \'+path+str(auth.user.id)\n          if len(form.vars.input_file)>0:\n\t     input_path=os.getcwd()\n             input_path=input_path+\'/applications/vlab/uploads/\'+form.vars.input_file; values["input"]=input_path\n             command=command+\'<\'+input_path\n         \n\t  out=commands.getstatusoutput(command)\n\t  out_mod=re.split(\'\\n\',out[1])\n\t  regex="==(\\d*)==\\s*([^:]*):\\s*(\\d+.*)"\n\t  for i in out_mod:\n\t\t match=re.findall(regex,i)\n\t\t if len(match)>0:\n\t\t \tprocid=match[0][0]\n\t\t\tif procid not in pid:\n\t\t\t\t pid.append(procid)\n\t\t\tlist.append(match[0])\t\n    if len(list)>0:\n\tregex="([^\\(]+)\\(\\s*(\\S+)[^\\+]*\\+\\s*(\\S+).*" ; t1= re.findall(regex,list[5][2]) ; values["a"]=t1[0][0] ; values["a_1"]=t1[0][1] ; values["a_2"] = t1[0][2] \n\tt2= re.findall(regex,list[6][2]) ; values["c"]=t2[0][0] ; values["c_1"]=t2[0][1] ; values["c_2"] = t2[0][2] ; values["e"]=values["c"] ; values["e_1"] = values["c_1"]; values["e_2"]=values["c_2"] \n\tt3= re.findall(regex,list[8][2]) ; values["d"]=t3[0][0] ; values["d_1"]=t3[0][1] ; values["d_2"] = t3[0][2] \n\tt4= re.findall(regex,list[7][2]) ; values["g"]=t4[0][0] ; values["g_1"]=t4[0][1] ; values["g_2"] = t4[0][2]\n\tvalues["b"]= int(values["a"].replace(",",""))-int(values["c"].replace(",","")) ; values["b_1"]= int(values["a_1"].replace(",",""))-int(values["c_1"].replace(",","")) ; values["b_2"]= int(values["a_2"].replace(",",""))-int(values["c_2"].replace(",","")) \n\tvalues["f"]= int(values["e"].replace(",",""))-int(values["g"].replace(",","")) ; values["f_1"]= int(values["e_1"].replace(",",""))-int(values["g_1"].replace(",","")) ; values["f_2"]= int(values["e_2"].replace(",",""))-int(values["g_2"].replace(",","")) \n\tvalues["h"]=str("%.2f"%((float(values["g"].replace(",",""))/float(values["e"].replace(",","")))*100))+"%" \n\tvalues["h_1"]=str("%.2f"%((float(values["g_1"].replace(",",""))/float(values["e_1"].replace(",","")))*100))+"%"\n\tvalues["h_2"]=str("%.2f"%((float(values["g_2"].replace(",",""))/float(values["e_2"].replace(",","")))*100))+"%"\n    #session.values={}\n    #session.values=values\n    session.input=input_path\n    session.compile=compile\n    session.i1_s=i1_s\n    response.flash = T(\'Welcome to web2py\')\n    return dict(form=form,message=T(\'Hello World\'),list=list,pid=pid,flag=flag,values=values,compile=compile)\n\ndef show_session():\n\treturn dict(session=session)\n\ndef show_graphs():\n\t import os\n\t import re\n\t import commands\n\t list=[]\n\t #values=session.values\n\t y1=[]\n\t y2=[]\n\t path=os.getcwd()\n         path=path+\'/applications/vlab/uploads/\'\n\t input_path=session.input\n\t if session.compile==True:\n\t\tfor i in range (2,9): \n\t\t\tcommand=\'valgrind --tool=cachegrind --I1=\'+str(session.i1_s)+\',\'+str(i)+\',\'+str(64)+ \' --cachegrind-out-file=\'+path+str(auth.user.id)+\'.%p \'+path+str(auth.user.id)\n\t \t\tif input_path != None:\n\t   \t\t\tcommand=command + \'<\' +input_path\n\t\t\tout=commands.getstatusoutput(command)\n\t\t\tout_mod=re.split(\'\\n\',out[1])\n\t  \t\tregex="==(\\d*)==\\s*([^:]*):\\s*(\\d+.*)"\n\t  \t\tfor j in out_mod:\n\t\t \t\tmatch=re.findall(regex,j)\n\t\t \t\tif len(match)>0:\n\t\t\t\t\tlist.append(match[0])\n\n\t\t\tif len(list) >0:\n\t\t\t\ty1.append(float(re.findall(\'[^%]+\',(list[3][2]))[0]))\n\t\t\t\tregex="([^\\(]+)\\(\\s*(\\S+)[^\\+]*\\+\\s*(\\S+).*"\n\t\t\t\tt3= re.findall(regex,list[8][2])\n\t\t\t\ty2.append=(float(re.findall(\'[^%]+\',t3[0][0])[0]))\n\t\t\n\t\tans="[["\n\t\tfor i in range(2,9):\n\t\t\tans=ans+\'[\'+str(i)+\',\'+str(y1[i-2])+\']\'\n\t\t\tif i!=8:\n\t\t\t\tans+=\',\'\n\t\tans+=\'],\'\n\t\tans+="["\n\t\tfor i in range(2,9):\n\t\t\tans=ans+\'[\'+str(i)+\',\'+str(y2[i-2])+\']\'\n\t\t\tif i!=8:\n\t\t\t\tans+=\',\'\n\t\tans+=\']]\'\n\t\tprint ans\n         return dict(ans=ans)\n\n\t \n\n\ndef customize():\n    form=SQLFORM(db.options)\n    \ndef user():\n    """\n    exposes:\n    http://..../[app]/default/user/login \n    http://..../[app]/default/user/logout\n    http://..../[app]/default/user/register\n    http://..../[app]/default/user/profile\n    http://..../[app]/default/user/retrieve_password\n    http://..../[app]/default/user/change_password\n    use @auth.requires_login()\n        @auth.requires_membership(\'group name\')\n        @auth.requires_permission(\'read\',\'table name\',record_id)\n    to decorate functions that need access control\n    """\n    return dict(form=auth())\n\n\ndef download():\n    """\n    allows downloading of uploaded files\n    http://..../[app]/default/download/[filename]\n    """\n    return response.download(request,db)\n\n\ndef call():\n    """\n    exposes services. for example:\n    http://..../[app]/default/call/jsonrpc\n    decorate with @services.jsonrpc the functions to expose\n    supports xml, json, xmlrpc, jsonrpc, amfrpc, rss, csv\n    """\n    session.forget()\n    return service()\n\nresponse._vars=response._caller(show_graphs)\n'
p6
sS'snapshot'
p7
(dp8
S'exception'
p9
(dp10
S'__hash__'
p11
S"<method-wrapper '__hash__' of exceptions.AttributeError object>"
p12
sS'__setattr__'
p13
S"<method-wrapper '__setattr__' of exceptions.AttributeError object>"
p14
sS'__reduce_ex__'
p15
S'<built-in method __reduce_ex__ of exceptions.AttributeError object>'
p16
sS'__getslice__'
p17
S"<method-wrapper '__getslice__' of exceptions.AttributeError object>"
p18
sS'__getitem__'
p19
S"<method-wrapper '__getitem__' of exceptions.AttributeError object>"
p20
sS'__setstate__'
p21
S'<built-in method __setstate__ of exceptions.AttributeError object>'
p22
sS'__reduce__'
p23
S'<built-in method __reduce__ of exceptions.AttributeError object>'
p24
sS'__str__'
p25
S"<method-wrapper '__str__' of exceptions.AttributeError object>"
p26
sS'__format__'
p27
S'<built-in method __format__ of exceptions.AttributeError object>'
p28
sS'__getattribute__'
p29
S"<method-wrapper '__getattribute__' of exceptions.AttributeError object>"
p30
sS'__class__'
p31
S"<type 'exceptions.AttributeError'>"
p32
sS'__unicode__'
p33
S'<built-in method __unicode__ of exceptions.AttributeError object>'
p34
sS'__delattr__'
p35
S"<method-wrapper '__delattr__' of exceptions.AttributeError object>"
p36
sS'__subclasshook__'
p37
S'<built-in method __subclasshook__ of type object>'
p38
sS'__repr__'
p39
S"<method-wrapper '__repr__' of exceptions.AttributeError object>"
p40
sS'args'
p41
S'("\'list\' object attribute \'append\' is read-only",)'
p42
sS'__dict__'
p43
S'{}'
p44
sS'__sizeof__'
p45
S'<built-in method __sizeof__ of exceptions.AttributeError object>'
p46
sS'__doc__'
p47
S"'Attribute not found.'"
p48
sS'__init__'
p49
S"<method-wrapper '__init__' of exceptions.AttributeError object>"
p50
sS'__new__'
p51
S'<built-in method __new__ of type object>'
p52
ssS'evalue'
p53
S"'list' object attribute 'append' is read-only"
p54
sS'request'
p55
(dp56
S'function'
p57
S"'show_graphs'"
p58
sS'body'
p59
S'<cStringIO.StringO object>'
p60
sS'wsgi'
p61
S"<Storage {'start_response': <function <lambda> a...ING': 'gzip,deflate', 'HTTP_KEEP_ALIVE': '115'}}>"
p62
sS'extension'
p63
S"'html'"
p64
sS'vars'
p65
S'<Storage {}>'
p66
sS'cid'
p67
S'None'
p68
sS'url'
p69
S'<gluon.html.XML object>'
p70
sg41
S'[]'
p71
sS'controller'
p72
S"'default'"
p73
sS'cookies'
p74
S"<SimpleCookie: __utma='96992031.1671719183.12879...'127-0-0-1-7c81a3a8-064b-4080-b26a-e68a38b3f52f'>"
p75
sS'application'
p76
S"'vlab'"
p77
sS'ajax'
p78
S'False'
p79
sS'client'
p80
S"'127.0.0.1'"
p81
sS'env'
p82
S"<Storage {'http_user_agent': 'Mozilla/5.0 (X11; ...False, 'path_info': '/vlab/default/show_graphs'}>"
p83
sS'raw_args'
p84
S'None'
p85
sS'get_vars'
p86
S'<Storage {}>'
p87
sS'folder'
p88
S"'/home/shrenik/web2py/applications/vlab/'"
p89
sS'now'
p90
S'datetime.datetime(2010, 10, 27, 2, 22, 52, 488300)'
p91
sS'post_vars'
p92
S'<Storage {}>'
p93
ssS'frames'
p94
(lp95
(dp96
S'file'
p97
S'/home/shrenik/web2py/gluon/restricted.py'
p98
sS'dump'
p99
(dp100
S'environment'
p101
S"{'A': <class 'gluon.html.A'>, 'Auth': <class 'gluon.tools.Auth'>, 'B': <class 'gluon.html.B'>, 'BEAUTIFY': <class 'gluon.html.BEAUTIFY'>, 'BODY': <class 'gluon.html.BODY'>, 'BR': <class 'gluon.html.BR'>, 'CENTER': <class 'gluon.html.CENTER'>, 'CLEANUP': <class 'gluon.validators.CLEANUP'>, 'CODE': <class 'gluon.html.CODE'>, 'CRYPT': <class 'gluon.validators.CRYPT'>, ...}"
p102
sS'ccode'
p103
S'<code object <module> at 0x96da848, file "/home/...pplications/vlab/controllers/default.py", line 9>'
p104
ssS'lnum'
p105
I188
sS'lines'
p106
(dp107
I192
S'        # XXX Show exception in Wing IDE if running in debugger'
p108
sI183
S'        if type(code) == types.CodeType:'
p109
sI184
S'            ccode = code'
p110
sI185
S'        else:'
p111
sI186
S'            ccode = compile2(code,layer)'
p112
sI187
S''
sI188
S'        exec ccode in environment'
p113
sI189
S'    except HTTP:'
p114
sI190
S'        raise'
p115
sI191
S'    except Exception:'
p116
ssS'call'
p117
S"(code='\\n###############################################...()\\n\\nresponse._vars=response._caller(show_graphs)\\n', environment={'A': <class 'gluon.html.A'>, 'Auth': <class 'gluon.tools.Auth'>, 'B': <class 'gluon.html.B'>, 'BEAUTIFY': <class 'gluon.html.BEAUTIFY'>, 'BODY': <class 'gluon.html.BODY'>, 'BR': <class 'gluon.html.BR'>, 'CENTER': <class 'gluon.html.CENTER'>, 'CLEANUP': <class 'gluon.validators.CLEANUP'>, 'CODE': <class 'gluon.html.CODE'>, 'CRYPT': <class 'gluon.validators.CRYPT'>, ...}, layer='/home/shrenik/web2py/applications/vlab/controllers/default.py')"
p118
sS'func'
p119
S'restricted'
p120
sa(dp121
g97
S'/home/shrenik/web2py/applications/vlab/controllers/default.py'
p122
sg99
(dp123
sg105
I167
sg106
(dp124
I160
S'    http://..../[app]/default/call/jsonrpc'
p125
sI161
S'    decorate with @services.jsonrpc the functions to expose'
p126
sI162
S'    supports xml, json, xmlrpc, jsonrpc, amfrpc, rss, csv'
p127
sI163
S'    """'
p128
sI164
S'    session.forget()'
p129
sI165
S'    return service()'
p130
sI156
S''
sI157
S'def call():'
p131
sI158
S'    """'
p132
sI159
S'    exposes services. for example:'
p133
ssg117
S'()'
p134
sg119
S'<module>'
p135
sa(dp136
g97
S'/home/shrenik/web2py/gluon/globals.py'
p137
sg99
(dp138
S'self'
p139
S'undefined'
p140
sS'f'
S'<function show_graphs>'
p141
ssg105
I96
sg106
(dp142
I96
S'        self._caller = lambda f: f()'
p143
sI97
S'        self._view_environment = None'
p144
sI98
S'        self._custom_commit = None'
p145
sI99
S'        self._custom_rollback = None'
p146
sI100
S''
sI91
S"        self.flash = ''           # used by the default view layout"
p147
sI92
S'        self.meta = Storage()     # used by web2py_ajax.html'
p148
sI93
S'        self.menu = []            # used by the default view layout'
p149
sI94
S'        self.files = []           # used by web2py_ajax.html'
p150
sI95
S'        self._vars = None'
p151
ssg117
S'(f=<function show_graphs>)'
p152
sg119
S'<lambda>'
p153
sa(dp154
g97
S'/home/shrenik/web2py/applications/vlab/controllers/default.py'
p155
sg99
(dp156
S're.findall'
p157
S'<function findall>'
p158
sS't3'
p159
S"[('1.4% ', '1.8%', '0.6%')]"
p160
sS're'
p161
S"<module 're' from '/usr/lib/python2.6/re.pyc'>"
p162
sS'y2.append'
p163
S'<built-in method append of list object>'
p164
sS'builtinfloat'
p165
S"<type 'float'>"
p166
sS'y2'
p167
S'[]'
p168
ssg105
I109
sg106
(dp169
I104
S''
sI105
S'\t\t\tif len(list) >0:'
p170
sI106
S"\t\t\t\ty1.append(float(re.findall('[^%]+',(list[3][2]))[0]))"
p171
sI107
S'\t\t\t\tregex="([^\\(]+)\\(\\s*(\\S+)[^\\+]*\\+\\s*(\\S+).*"'
p172
sI108
S'\t\t\t\tt3= re.findall(regex,list[8][2])'
p173
sI109
S"\t\t\t\ty2.append=(float(re.findall('[^%]+',t3[0][0])[0]))"
p174
sI110
S''
sI111
S'\t\tans="[["'
p175
sI112
S'\t\tfor i in range(2,9):'
p176
sI113
S"\t\t\tans=ans+'['+str(i)+','+str(y1[i-2])+']'"
p177
ssg117
S'()'
p178
sg119
S'show_graphs'
p179
sasS'pyver'
p180
S'Python 2.6.6: /usr/bin/python'
p181
sS'session'
p182
(dp183
S'i1_ass'
p184
S'2'
sS'flash'
p185
S'None'
p186
sS'auth'
p187
S"<Storage {'expiration': 3600, 'user': <Storage {..., 10, 27, 2, 22, 52, 488300), 'remember': False}>"
p188
sS'compile'
p189
S'True'
p190
sS'i1_s'
p191
S'2048'
p192
sS'_formkey[programs_create]'
p193
S"'1d63af0a-a4ba-4298-82e8-0d41656923f5'"
p194
sS'input'
p195
S"'/home/shrenik/web2py/applications/vlab/uploads/programs.input_file.b5981fc9ca630863.74657374.txt'"
p196
sS'_formkey[login]'
p197
S"'f2d45f6a-61fc-44bd-9639-0a4a5bc8f4d7'"
p198
ssS'etype'
p199
S"<type 'exceptions.AttributeError'>"
p200
sS'date'
p201
S'Wed Oct 27 02:22:53 2010'
p202
sS'response'
p203
(dp204
S'status'
p205
S'200'
p206
sg59
S'<cStringIO.StringO object>'
p207
sg74
S"<SimpleCookie: session_id_vlab='127-0-0-1-7c81a3a8-064b-4080-b26a-e68a38b3f52f'>"
p208
sS'_vars'
p209
S'None'
p210
sS'title'
p211
S"'vlab'"
p212
sS'session_file'
p213
S"<open file '/home/shrenik/web2py/applications/vl...c81a3a8-064b-4080-b26a-e68a38b3f52f', mode 'rb+'>"
p214
sS'flash'
p215
S"''"
p216
sS'_custom_rollback'
p217
S'None'
p218
sS'session_id'
p219
S"'127-0-0-1-7c81a3a8-064b-4080-b26a-e68a38b3f52f'"
p220
sS'headers'
p221
S"<Storage {'Expires': 'Tue, 26 Oct 2010 20:52:52 ...he, must-revalidate, post-check=0, pre-check=0'}>"
p222
sS'meta'
p223
S"<Storage {'keywords': 'bla bla bla', 'description': 'describe your app', 'author': 'you'}>"
p224
sS'session_filename'
p225
S"'/home/shrenik/web2py/applications/vlab/sessions/127-0-0-1-7c81a3a8-064b-4080-b26a-e68a38b3f52f'"
p226
sS'postprocessing'
p227
S'[]'
p228
sS'menu'
p229
S"[(<lazyT 'Index'>, False, <gluon.html.XML object>, []), ('Change Layout', False, <gluon.html.XML object>)]"
p230
sS'_view_environment'
p231
S"{'A': <class 'gluon.html.A'>, 'Auth': <class 'gluon.tools.Auth'>, 'B': <class 'gluon.html.B'>, 'BEAUTIFY': <class 'gluon.html.BEAUTIFY'>, 'BODY': <class 'gluon.html.BODY'>, 'BR': <class 'gluon.html.BR'>, 'CENTER': <class 'gluon.html.CENTER'>, 'CLEANUP': <class 'gluon.validators.CLEANUP'>, 'CODE': <class 'gluon.html.CODE'>, 'CRYPT': <class 'gluon.validators.CRYPT'>, ...}"
p232
sS'subtitle'
p233
S"<lazyT 'customize me!'>"
p234
sS'session_id_name'
p235
S"'session_id_vlab'"
p236
sS'_custom_commit'
p237
S'None'
p238
sS'_caller'
p239
S'<function <lambda>>'
p240
sS'files'
p241
S'[]'
p242
sS'view'
p243
S"'default/show_graphs.html'"
p244
ssS'locals'
p245
(dp246
S'regex'
p247
S"r'([^\\(]+)\\(\\s*(\\S+)[^\\+]*\\+\\s*(\\S+).*'"
p248
sS'out_mod'
p249
S'[\'==4724== Cachegrind, a cache and branch-prediction profiler\', "==4724== Copyright (C) 2002-2010, and GNU GPL\'d, by Nicholas Nethercote et al.", \'==4724== Using Valgrind-3.6.0.SVN-Debian and LibVEX; rerun with -h for copyright info\', \'==4724== Command: /home/shrenik/web2py/applications/vlab/uploads/1\', \'==4724== \', \'--4724-- warning: Unknown Intel cache config value (0xdd), ignoring\', \'ABOUT\', \'a.out\', \'appengine_config.py\', \'applications\', \'app.yaml\', \'cachegrind.out.10015\', \'cachegrind.out.10043\', \'cachegrind.out.10070\', \'cachegrind.out.10101\', \'cachegrind.out.10123\', \'cachegrind.out.10147\', \'cachegrind.out.10172\', \'cachegrind.out.10224\', \'cachegrind.out.10248\', ...]'
p250
sS'input_path'
p251
S"'/home/shrenik/web2py/applications/vlab/uploads/programs.input_file.b5981fc9ca630863.74657374.txt'"
p252
sS'i'
S'2'
sS'j'
S"'==4724== L2 miss rate:      0.6% (    0.6%     +    0.5%  )'"
p253
sS'list'
p254
S"[('4724', 'I   refs', '299,244'), ('4724', 'I1  misses', '6,733'), ('4724', 'L2i misses', '1,031'), ('4724', 'I1  miss rate', '2.25%'), ('4724', 'L2i miss rate', '0.34%'), ('4724', 'D   refs', '151,193  (102,786 rd   + 48,407 wr)'), ('4724', 'D1  misses', '2,251  (  1,923 rd   +    328 wr)'), ('4724', 'L2d misses', '1,786  (  1,504 rd   +    282 wr)'), ('4724', 'D1  miss rate', '1.4% (    1.8%     +    0.6%  )'), ('4724', 'L2d miss rate', '1.1% (    1.4%     +    0.5%  )'), ('4724', 'L2 refs', '8,984  (  8,656 rd   +    328 wr)'), ('4724', 'L2 misses', '2,817  (  2,535 rd   +    282 wr)'), ('4724', 'L2 miss rate', '0.6% (    0.6%     +    0.5%  )')]"
p255
sS'commands'
p256
S"<module 'commands' from '/usr/lib/python2.6/commands.pyc'>"
p257
sS't3'
p258
S"[('1.4% ', '1.8%', '0.6%')]"
p259
sS're'
p260
S"<module 're' from '/usr/lib/python2.6/re.pyc'>"
p261
sS'command'
p262
S"'valgrind --tool=cachegrind --I1=2048,2,64 --cach...programs.input_file.b5981fc9ca630863.74657374.txt'"
p263
sS'y1'
p264
S'[2.25]'
p265
sS'path'
p266
S"'/home/shrenik/web2py/applications/vlab/uploads/'"
p267
sS'y2'
p268
S'[]'
p269
sS'os'
p270
S"<module 'os' from '/usr/lib/python2.6/os.pyc'>"
p271
sS'match'
p272
S"[('4724', 'L2 miss rate', '0.6% (    0.6%     +    0.5%  )')]"
p273
sS'out'
p274
S"(0, '==4724== Cachegrind, a cache and branch-predicti...2 miss rate:      0.6% (    0.6%     +    0.5%  )')"
p275
sssS'traceback'
p276
S'Traceback (most recent call last):\n  File "/home/shrenik/web2py/gluon/restricted.py", line 188, in restricted\n    exec ccode in environment\n  File "/home/shrenik/web2py/applications/vlab/controllers/default.py", line 167, in <module>\n  File "/home/shrenik/web2py/gluon/globals.py", line 96, in <lambda>\n    self._caller = lambda f: f()\n  File "/home/shrenik/web2py/applications/vlab/controllers/default.py", line 109, in show_graphs\n    y2.append=(float(re.findall(\'[^%]+\',t3[0][0])[0]))\nAttributeError: \'list\' object attribute \'append\' is read-only\n'
p277
s.