(dp1
S'output'
p2
S''
sS'layer'
p3
S'/home/shrenik/web2py/applications/vlab/controllers/default.py'
p4
sS'code'
p5
S'# -*- coding: utf-8 -*- \n\n#########################################################################\n## This is a samples controller\n## - index is the default action of any application\n## - user is required for authentication and authorization\n## - download is for downloading files uploaded in the db (does streaming)\n## - call exposes all registered services (none by default)\n#########################################################################  \n\n\ndef index():\n    import os\n    import re\n    import commands\n    """\n    example action using the internationalization operator T and flash\n    rendered by views/default/index.html or views/generic.html\n    """\n    pid=[]\n    flag=0\n    killed=0\n    list=[]\n    out="Test"\n    inp=None\n    out_mod=None\n    form=SQLFORM(db.programs)\n    if(form.accepts(request.vars,session)):\n         flag=1\n\t path=os.getcwd()\n         path=path+\'/applications/vlab/uploads/\'+form.vars.file\n         inp=commands.getstatusoutput(\'cc \'+path)\n         command=\'valgrind --tool=cachegrind --I1=\'+str(form.vars.i1_size)+\',\'+str(form.vars.i1_associativity)+\',\'+str(form.vars.i1_line_size)+\' ./a.out\'\n         if len(form.vars.input_file)>2:\n             print form.vars.input_file\n\t     input_path=os.getcwd()\n             input_path=input_path+\'/applications/vlab/uploads/\'+form.vars.input_file\n             command=command+\'<\'+input_path\n \t \n\t import time\n\n\t import signal\n\t start=time.time()\n\t pid=os.fork()\n\t if pid==0:\n\t\t out=commands.getstatusoutput(command)\n\t else:\n\t\t while 1:\n\t\t\t if time.time()-start >5:\n\t\t\t\t os.kill(pid,signal.SIGKILL)\n\t\t\t\t break\n\t\t\t elif not os.path.exists(\'/proc/\'+pid):\n\t\t\t\t break\n\n         \n\t out_mod=re.split(\'\\n\',out[1])\n\t regex="==(\\d*)==\\s*([^:]*):\\s*(\\d+.*)"\n\t for i in out_mod:\n\t\t match=re.findall(regex,i)\n\t\t if len(match)>0:\n\t\t \tprocid=match[0][0]\n\t\t\tif procid not in pid:\n\t\t\t\t pid.append(procid)\n\t\t\tlist.append(match[0])\t\n    \n    response.flash = T(\'Welcome to web2py\')\n    return dict(form=form,message=T(\'Hello World\'),list=list,pid=pid,flag=flag)\n\ndef customize():\n    form=SQLFORM(db.options)\n    \ndef user():\n    """\n    exposes:\n    http://..../[app]/default/user/login \n    http://..../[app]/default/user/logout\n    http://..../[app]/default/user/register\n    http://..../[app]/default/user/profile\n    http://..../[app]/default/user/retrieve_password\n    http://..../[app]/default/user/change_password\n    use @auth.requires_login()\n        @auth.requires_membership(\'group name\')\n        @auth.requires_permission(\'read\',\'table name\',record_id)\n    to decorate functions that need access control\n    """\n    return dict(form=auth())\n\n\ndef download():\n    """\n    allows downloading of uploaded files\n    http://..../[app]/default/download/[filename]\n    """\n    return response.download(request,db)\n\n\ndef call():\n    """\n    exposes services. for example:\n    http://..../[app]/default/call/jsonrpc\n    decorate with @services.jsonrpc the functions to expose\n    supports xml, json, xmlrpc, jsonrpc, amfrpc, rss, csv\n    """\n    session.forget()\n    return service()\n\nresponse._vars=response._caller(index)\n'
p6
sS'snapshot'
p7
(dp8
S'exception'
p9
(dp10
S'__hash__'
p11
S"<method-wrapper '__hash__' of exceptions.TypeError object>"
p12
sS'__setattr__'
p13
S"<method-wrapper '__setattr__' of exceptions.TypeError object>"
p14
sS'__reduce_ex__'
p15
S'<built-in method __reduce_ex__ of exceptions.TypeError object>'
p16
sS'__getslice__'
p17
S"<method-wrapper '__getslice__' of exceptions.TypeError object>"
p18
sS'__getitem__'
p19
S"<method-wrapper '__getitem__' of exceptions.TypeError object>"
p20
sS'__setstate__'
p21
S'<built-in method __setstate__ of exceptions.TypeError object>'
p22
sS'__reduce__'
p23
S'<built-in method __reduce__ of exceptions.TypeError object>'
p24
sS'__str__'
p25
S"<method-wrapper '__str__' of exceptions.TypeError object>"
p26
sS'__format__'
p27
S'<built-in method __format__ of exceptions.TypeError object>'
p28
sS'__getattribute__'
p29
S"<method-wrapper '__getattribute__' of exceptions.TypeError object>"
p30
sS'__class__'
p31
S"<type 'exceptions.TypeError'>"
p32
sS'__unicode__'
p33
S'<built-in method __unicode__ of exceptions.TypeError object>'
p34
sS'__delattr__'
p35
S"<method-wrapper '__delattr__' of exceptions.TypeError object>"
p36
sS'__subclasshook__'
p37
S'<built-in method __subclasshook__ of type object>'
p38
sS'__repr__'
p39
S"<method-wrapper '__repr__' of exceptions.TypeError object>"
p40
sS'args'
p41
S'("cannot concatenate \'str\' and \'int\' objects",)'
p42
sS'__dict__'
p43
S'{}'
p44
sS'__sizeof__'
p45
S'<built-in method __sizeof__ of exceptions.TypeError object>'
p46
sS'__doc__'
p47
S"'Inappropriate argument type.'"
p48
sS'__init__'
p49
S"<method-wrapper '__init__' of exceptions.TypeError object>"
p50
sS'__new__'
p51
S'<built-in method __new__ of type object>'
p52
ssS'evalue'
p53
S"cannot concatenate 'str' and 'int' objects"
p54
sS'request'
p55
(dp56
S'function'
p57
S"'index'"
p58
sS'body'
p59
S"<open file '<fdopen>', mode 'w+b'>"
p60
sS'wsgi'
p61
S"<Storage {'start_response': <function <lambda> a...ING': 'gzip,deflate', 'HTTP_KEEP_ALIVE': '115'}}>"
p62
sS'extension'
p63
S"'html'"
p64
sS'vars'
p65
S"<Storage {'i1_associativity': '2', 'd1_size': '6...ciativity': '2', '_formname': 'programs_create'}>"
p66
sS'cid'
p67
S'None'
p68
sS'url'
p69
S'<gluon.html.XML object>'
p70
sg41
S'[]'
p71
sS'controller'
p72
S"'default'"
p73
sS'cookies'
p74
S"<SimpleCookie: session_id_admin='127-0-0-1-020b2...'127-0-0-1-d51e55bb-1989-4c66-91bc-ad4e17601eab'>"
p75
sS'application'
p76
S"'vlab'"
p77
sS'ajax'
p78
S'False'
p79
sS'client'
p80
S"'127.0.0.1'"
p81
sS'env'
p82
S"<Storage {'content_length': '1796', 'http_user_a...te', 'query_string': '', 'wsgi_run_once': False}>"
p83
sS'raw_args'
p84
S'None'
p85
sS'get_vars'
p86
S'<Storage {}>'
p87
sS'folder'
p88
S"'/home/shrenik/web2py/applications/vlab/'"
p89
sS'now'
p90
S'datetime.datetime(2010, 10, 20, 3, 3, 46, 95104)'
p91
sS'post_vars'
p92
S"<Storage {'i1_associativity': '2', 'd1_size': '6...ciativity': '2', '_formname': 'programs_create'}>"
p93
ssS'frames'
p94
(lp95
(dp96
S'file'
p97
S'/home/shrenik/web2py/gluon/restricted.py'
p98
sS'dump'
p99
(dp100
S'environment'
p101
S"{'A': <class 'gluon.html.A'>, 'Auth': <class 'gluon.tools.Auth'>, 'B': <class 'gluon.html.B'>, 'BEAUTIFY': <class 'gluon.html.BEAUTIFY'>, 'BODY': <class 'gluon.html.BODY'>, 'BR': <class 'gluon.html.BR'>, 'CENTER': <class 'gluon.html.CENTER'>, 'CLEANUP': <class 'gluon.validators.CLEANUP'>, 'CODE': <class 'gluon.html.CODE'>, 'CRYPT': <class 'gluon.validators.CRYPT'>, ...}"
p102
sS'ccode'
p103
S'<code object <module> at 0x9469f08, file "/home/...plications/vlab/controllers/default.py", line 12>'
p104
ssS'lnum'
p105
I188
sS'lines'
p106
(dp107
I192
S'        # XXX Show exception in Wing IDE if running in debugger'
p108
sI183
S'        if type(code) == types.CodeType:'
p109
sI184
S'            ccode = code'
p110
sI185
S'        else:'
p111
sI186
S'            ccode = compile2(code,layer)'
p112
sI187
S''
sI188
S'        exec ccode in environment'
p113
sI189
S'    except HTTP:'
p114
sI190
S'        raise'
p115
sI191
S'    except Exception:'
p116
ssS'call'
p117
S"(code='# -*- coding: utf-8 -*- \\n\\n######################...ervice()\\n\\nresponse._vars=response._caller(index)\\n', environment={'A': <class 'gluon.html.A'>, 'Auth': <class 'gluon.tools.Auth'>, 'B': <class 'gluon.html.B'>, 'BEAUTIFY': <class 'gluon.html.BEAUTIFY'>, 'BODY': <class 'gluon.html.BODY'>, 'BR': <class 'gluon.html.BR'>, 'CENTER': <class 'gluon.html.CENTER'>, 'CLEANUP': <class 'gluon.validators.CLEANUP'>, 'CODE': <class 'gluon.html.CODE'>, 'CRYPT': <class 'gluon.validators.CRYPT'>, ...}, layer='/home/shrenik/web2py/applications/vlab/controllers/default.py')"
p118
sS'func'
p119
S'restricted'
p120
sa(dp121
g97
S'/home/shrenik/web2py/applications/vlab/controllers/default.py'
p122
sg99
(dp123
sg105
I107
sg106
(dp124
I96
S''
sI97
S'def call():'
p125
sI98
S'    """'
p126
sI99
S'    exposes services. for example:'
p127
sI100
S'    http://..../[app]/default/call/jsonrpc'
p128
sI101
S'    decorate with @services.jsonrpc the functions to expose'
p129
sI102
S'    supports xml, json, xmlrpc, jsonrpc, amfrpc, rss, csv'
p130
sI103
S'    """'
p131
sI104
S'    session.forget()'
p132
sI105
S'    return service()'
p133
ssg117
S'()'
p134
sg119
S'<module>'
p135
sa(dp136
g97
S'/home/shrenik/web2py/gluon/globals.py'
p137
sg99
(dp138
S'self'
p139
S'undefined'
p140
sS'f'
S'<function index>'
p141
ssg105
I96
sg106
(dp142
I96
S'        self._caller = lambda f: f()'
p143
sI97
S'        self._view_environment = None'
p144
sI98
S'        self._custom_commit = None'
p145
sI99
S'        self._custom_rollback = None'
p146
sI100
S''
sI91
S"        self.flash = ''           # used by the default view layout"
p147
sI92
S'        self.meta = Storage()     # used by web2py_ajax.html'
p148
sI93
S'        self.menu = []            # used by the default view layout'
p149
sI94
S'        self.files = []           # used by web2py_ajax.html'
p150
sI95
S'        self._vars = None'
p151
ssg117
S'(f=<function index>)'
p152
sg119
S'<lambda>'
p153
sa(dp154
g97
S'/home/shrenik/web2py/applications/vlab/controllers/default.py'
p155
sg99
(dp156
S'pid'
p157
S'6243'
p158
sS'os.path.exists'
p159
S'<function exists>'
p160
sS'os'
p161
S"<module 'os' from '/usr/lib/python2.6/os.pyc'>"
p162
sS'os.path'
p163
S"<module 'posixpath' from '/usr/lib/python2.6/posixpath.pyc'>"
p164
ssg105
I52
sg106
(dp165
I47
S'\t else:'
p166
sI48
S'\t\t while 1:'
p167
sI49
S'\t\t\t if time.time()-start >5:'
p168
sI50
S'\t\t\t\t os.kill(pid,signal.SIGKILL)'
p169
sI51
S'\t\t\t\t break'
p170
sI52
S"\t\t\t elif not os.path.exists('/proc/'+pid):"
p171
sI53
S'\t\t\t\t break'
p172
sI54
S''
sI55
S''
sI56
S"\t out_mod=re.split('\\n',out[1])"
p173
ssg117
S'()'
p174
sg119
S'index'
p175
sasS'pyver'
p176
S'Python 2.6.6: /usr/bin/python'
p177
sS'session'
p178
(dp179
S'count'
p180
S'1'
sS'auth'
p181
S'None'
p182
sS'_formkey[programs_create]'
p183
S"'24d5a9b9-8421-4e5f-a7c4-eb8e8c404d47'"
p184
ssS'etype'
p185
S"<type 'exceptions.TypeError'>"
p186
sS'date'
p187
S'Wed Oct 20 03:03:46 2010'
p188
sS'response'
p189
(dp190
S'status'
p191
S'200'
p192
sg59
S'<cStringIO.StringO object>'
p193
sg74
S"<SimpleCookie: session_id_vlab='127-0-0-1-bd6aca27-1ced-49d5-b876-eb675abd268c'>"
p194
sS'_vars'
p195
S'None'
p196
sS'title'
p197
S"'vlab'"
p198
sS'session_file'
p199
S"<open file '/home/shrenik/web2py/applications/vl...d6aca27-1ced-49d5-b876-eb675abd268c', mode 'rb+'>"
p200
sS'flash'
p201
S"''"
p202
sS'_custom_rollback'
p203
S'None'
p204
sS'session_id'
p205
S"'127-0-0-1-bd6aca27-1ced-49d5-b876-eb675abd268c'"
p206
sS'headers'
p207
S"<Storage {'Expires': 'Tue, 19 Oct 2010 21:33:46 ...he, must-revalidate, post-check=0, pre-check=0'}>"
p208
sS'meta'
p209
S"<Storage {'keywords': 'bla bla bla', 'description': 'describe your app', 'author': 'you'}>"
p210
sS'session_filename'
p211
S"'/home/shrenik/web2py/applications/vlab/sessions/127-0-0-1-bd6aca27-1ced-49d5-b876-eb675abd268c'"
p212
sS'postprocessing'
p213
S'[]'
p214
sS'menu'
p215
S"[(<lazyT 'Index'>, False, <gluon.html.XML object>, []), ('Change Layout', False, <gluon.html.XML object>)]"
p216
sS'_view_environment'
p217
S"{'A': <class 'gluon.html.A'>, 'Auth': <class 'gluon.tools.Auth'>, 'B': <class 'gluon.html.B'>, 'BEAUTIFY': <class 'gluon.html.BEAUTIFY'>, 'BODY': <class 'gluon.html.BODY'>, 'BR': <class 'gluon.html.BR'>, 'CENTER': <class 'gluon.html.CENTER'>, 'CLEANUP': <class 'gluon.validators.CLEANUP'>, 'CODE': <class 'gluon.html.CODE'>, 'CRYPT': <class 'gluon.validators.CRYPT'>, ...}"
p218
sS'subtitle'
p219
S"<lazyT 'customize me!'>"
p220
sS'session_id_name'
p221
S"'session_id_vlab'"
p222
sS'_custom_commit'
p223
S'None'
p224
sS'_caller'
p225
S'<function <lambda>>'
p226
sS'files'
p227
S'[]'
p228
sS'view'
p229
S"'default/index.html'"
p230
ssS'locals'
p231
(dp232
S'out_mod'
p233
S'None'
p234
sS'form'
p235
S'<gluon.sqlhtml.SQLFORM object>'
p236
sS'start'
p237
S'1287524026.1808569'
p238
sS'list'
p239
S'[]'
p240
sS'signal'
p241
S"<module 'signal' (built-in)>"
p242
sS'inp'
p243
S"(0, '')"
p244
sS'commands'
p245
S"<module 'commands' from '/usr/lib/python2.6/commands.pyc'>"
p246
sS're'
p247
S"<module 're' from '/usr/lib/python2.6/re.pyc'>"
p248
sS'flag'
p249
S'1'
sS'command'
p250
S"'valgrind --tool=cachegrind --I1=65536,2,64 ./a.out'"
p251
sS'time'
p252
S"<module 'time' (built-in)>"
p253
sS'path'
p254
S"'/home/shrenik/web2py/applications/vlab/uploads/programs.file.9a34d9d501d23ee4.6c61642e63.c'"
p255
sS'os'
p256
S"<module 'os' from '/usr/lib/python2.6/os.pyc'>"
p257
sS'killed'
p258
S'0'
sS'pid'
p259
S'6243'
p260
sS'out'
p261
S"'Test'"
p262
sssS'traceback'
p263
S'Traceback (most recent call last):\n  File "/home/shrenik/web2py/gluon/restricted.py", line 188, in restricted\n    exec ccode in environment\n  File "/home/shrenik/web2py/applications/vlab/controllers/default.py", line 107, in <module>\n  File "/home/shrenik/web2py/gluon/globals.py", line 96, in <lambda>\n    self._caller = lambda f: f()\n  File "/home/shrenik/web2py/applications/vlab/controllers/default.py", line 52, in index\n    elif not os.path.exists(\'/proc/\'+pid):\nTypeError: cannot concatenate \'str\' and \'int\' objects\n'
p264
s.