(dp1
S'output'
p2
S''
sS'layer'
p3
S'/home/cvest.cso/public_html/LocalityAnalysis/web2py/applications/teach_me_binary/views/default/calc_add.html'
p4
sS'code'
p5
S'response.write(\'<!DOCTYPE html PUBLIC "-//W3C//DTD XHTML 1.0 Strict//EN" "http://www.w3.org/TR/xhtml1/DTD/xhtml1-strict.dtd">\\n<html xmlns="http://www.w3.org/1999/xhtml">\\n <head>\\n  <title>\\n   \', escape=False)\nresponse.write(response.title or request.application)\nresponse.write(\'\\n  </title>\\n  \', escape=False)\nresponse.files.append(URL(request.application,\'static\',\'plugin_layouts/layouts/TinyBlue/styles.css\'))\nresponse.write(\'\\n  \', escape=False)\nresponse.files.append(URL(\'static\',\'plugin_layouts/superfish.js\'))\nresponse.write(\'\\n  \', escape=False)\nresponse.files.insert(0,URL(r=request,c=\'static\',f=\'jquery.js\'))\nresponse.files.insert(1,URL(r=request,c=\'static\',f=\'calendar.css\'))\nresponse.files.insert(2,URL(r=request,c=\'static\',f=\'calendar.js\'))\nfor _item in response.meta or []:\n    response.write(\'\\n     <meta name="\', escape=False)\n    response.write(_item)\n    response.write(\'" content="\', escape=False)\n    response.write(response.meta[_item])\n    response.write(\'" />\', escape=False)\n    pass\nfor _k,_file in enumerate(response.files or []):\n    if _file in response.files[:_k]:\n        continue\n    _file0=_file.lower().split(\'?\')[0]\n    if _file0.endswith(\'.css\'):\n        response.write(\'\\n     <link href="\', escape=False)\n        response.write(_file)\n        response.write(\'" rel="stylesheet" type="text/css" />\', escape=False)\n    elif _file0.endswith(\'.js\'):\n        response.write(\'\\n     <script src="\', escape=False)\n        response.write(_file)\n        response.write(\'" type="text/javascript"></script>\', escape=False)\n        pass\n    pass\nresponse.write(\'\\n<script type="text/javascript"><!--\\nfunction popup(url) {\\n  newwindow=window.open(url,\\\'name\\\',\\\'height=400,width=600\\\');\\n  if (window.focus) newwindow.focus();\\n  return false;\\n}\\nfunction collapse(id) { jQuery(\\\'#\\\'+id).slideToggle(); }\\nfunction fade(id,value) { if(value>0) jQuery(\\\'#\\\'+id).hide().fadeIn(\\\'slow\\\'); else jQuery(\\\'#\\\'+id).show().fadeOut(\\\'slow\\\'); }\\nfunction ajax(u,s,t) {\\n    query = \\\'\\\';\\n    if (typeof s == "string") {\\n        d = jQuery(s).serialize();\\n        if(d){ query = d; }\\n    } else {\\n        pcs = [];\\n        for(i=0; i<s.length; i++) {\\n            q = jQuery("[name="+s[i]+"]").serialize();\\n            if(q){pcs.push(q);}\\n        }\\n        if (pcs.length>0){query = pcs.join("&");}\\n    }\\n    jQuery.ajax({type: "POST", url: u, data: query, success: function(msg) { if(t) { if(t==\\\':eval\\\') eval(msg); else jQuery("#" + t).html(msg); } } }); \\n}\\nString.prototype.reverse = function () { return this.split(\\\'\\\').reverse().join(\\\'\\\');};\\nfunction web2py_ajax_init() {\\n  jQuery(\\\'.hidden\\\').hide();\\n  jQuery(\\\'.error\\\').hide().slideDown(\\\'slow\\\');\\n  jQuery(\\\'.flash\\\').click(function() { jQuery(this).fadeOut(\\\'slow\\\'); return false; });\\n  // jQuery(\\\'input[type=submit]\\\').click(function(){var t=jQuery(this);t.hide();t.after(\\\'<input class="submit_disabled" disabled="disabled" type="submit" name="\\\'+t.attr("name")+\\\'_dummy" value="\\\'+t.val()+\\\'">\\\')});\\n  jQuery(\\\'input.integer\\\').keyup(function(){this.value=this.value.reverse().replace(/[^0-9\\\\-]|\\\\-(?=.)/g,\\\'\\\').reverse();});\\n  jQuery(\\\'input.double,input.decimal\\\').keyup(function(){this.value=this.value.reverse().replace(/[^0-9\\\\-\\\\.]|[\\\\-](?=.)|[\\\\.](?=[0-9]*[\\\\.])/g,\\\'\\\').reverse();});\\n  jQuery("input[type=\\\'checkbox\\\'].delete").each(function(){jQuery(this).click(function() { if(this.checked) if(!confirm("\', escape=False)\nresponse.write(T(\'Sure you want to delete this object?\'))\nresponse.write(\'")) this.checked=false; });});\\n  try {jQuery("input.date").focus( function() {Calendar.setup({\\n     inputField:this.id, ifFormat:"\', escape=False)\nresponse.write(T(\'%Y-%m-%d\'))\nresponse.write(\'", showsTime:false\\n  }); }); } catch(e) {};\\n  try { jQuery("input.datetime").focus( function() {Calendar.setup({\\n     inputField:this.id, ifFormat:"\', escape=False)\nresponse.write(T(\'%Y-%m-%d %H:%M:%S\'))\nresponse.write(\'", showsTime: true,timeFormat: "24"\\n  }); }); } catch(e) {};\\n  try { jQuery("input.time").clockpick({\\n      starthour:0, endhour:23, showminutes:true, military:true\\n  }); } catch(e) {};\\n};\\njQuery(document).ready(function(){\\n   jQuery(\\\'.flash\\\').hide();\\n   if(jQuery(\\\'.flash\\\').html()!=\\\'\\\') jQuery(\\\'.flash\\\').slideDown(\\\'slow\\\');\\n   web2py_ajax_init();});\\n\\nfunction web2py_trap_form(action,target) {\\n   jQuery(\\\'#\\\'+target+\\\' form\\\').each(function(i){\\n      var form=jQuery(this);\\n      if(!form.hasClass(\\\'no_trap\\\'))\\n        form.submit(function(obj){\\n         jQuery(\\\'.flash\\\').hide().html(\\\'\\\');\\n         web2py_ajax_page(\\\'post\\\',action,form.serialize(),target);\\n         return false;\\n      });\\n   });\\n}\\n\\nfunction web2py_ajax_page(method,action,data,target) {\\n  jQuery.ajax({\\\'type\\\':method,\\\'url\\\':action,\\\'data\\\':data,\\n    \\\'beforeSend\\\':function(xhr) {\\n      xhr.setRequestHeader(\\\'web2py-component-location\\\',document.location);\\n      xhr.setRequestHeader(\\\'web2py-component-element\\\',target);},\\n    \\\'complete\\\':function(xhr,text){\\n      var html=xhr.responseText;\\n      var content=xhr.getResponseHeader(\\\'web2py-component-content\\\'); \\n      var command=xhr.getResponseHeader(\\\'web2py-component-command\\\');\\n      var flash=xhr.getResponseHeader(\\\'web2py-component-flash\\\');\\n      var t = jQuery(\\\'#\\\'+target);\\n      if(content==\\\'prepend\\\') t.prepend(html); \\n      else if(content==\\\'append\\\') t.append(html);\\n      else if(content!=\\\'hide\\\') t.html(html);  \\n      web2py_trap_form(action,target);\\n      web2py_ajax_init();      \\n      if(command) eval(command);\\n      if(flash) jQuery(\\\'.flash\\\').html(flash).slideDown();\\n      }\\n    });\\n}\\nfunction web2py_component(action,target) {\\n    jQuery(document).ready(function(){ web2py_ajax_page(\\\'get\\\',action,null,target); });\\n}\\n//--></script>\\n\', escape=False)\nresponse.write(\'\\n  <style>\\nul.web2py-menu-vertical { width: 150px; position: relative; top:1em; left:1em;  z-index:30; border:0; margin:0; padding: 0; list-style: none; text-decoration: none;}\\nul.web2py-menu-vertical li { margin:0; padding:0; border:0; width: 150px; background: black; text-align:left;}\\nul.web2py-menu-vertical li a { margin:0; padding: 1px 3px 1px 3px; border:0; width: 144px; color: white; font-size:12px;}\\ndiv.flash { position: fixed; float: right; padding: 10px; top: 10px; right: 30px; opacity: 0.75; margin: 10px 10px 10px 10px; text-align: center; clear: both; color: #fff; font-size: 11pt; text-align: center; vertical-align: middle; cursor: pointer; background: black; border: 2px solid #fff; -moz-border-radius: 5px; -webkit-border-radius: 5px; z-index: 2; }\\ndiv.error { background-color: red; color: white; padding: 3px; }\\n.auth_navbar { text-align:right; z-index:20; position: absolute; top: 2px; right:30px; border:0; padding:0 }\\n  </style>\\n </head>\\n <body>\\n  <!-- start header -->\\n  \', escape=False)\ntry:\n    response.write(auth.navbar(action=URL(\'default\',\'user\')))\nexcept:pass\nresponse.write(\'\\n\\n  <div id="container">\\n   <div id="border">\\n    <div id="header">\\n     <h1>\\n      \', escape=False)\nresponse.write(response.title or request.application)\nresponse.write(\'\\n     </h1>\\n     <h2>\\n      \', escape=False)\nresponse.write(response.subtitle or \'=response.subtitle\')\nresponse.write(\'\\n     </h2>\\n    </div>\\n    <div id="menu">\\n     \', escape=False)\nresponse.write(MENU(response.menu,_class=\'web2py-menu\'))\nresponse.write(\'\\n    <script>\\n      jQuery(document).ready(function(){jQuery(\\\'ul.web2py-menu\\\').superfish({delay:400});});\\n    </script>\\n    </div>\\n    <div id="content">\\n     <div class="flash">\', escape=False)\nresponse.write(response.flash or \'\')\nresponse.write(\'</div>\\n     \', escape=False)\nresponse.write(\'\\n<h1>Try this</h1>\\n<h2>Signed Range</h2> -\', escape=False)\nresponse.write(pow(2,int(session.k)-1)\nresponse.write(\'<br/>\\n\', escape=False)\nresponse.write(form.custom.begin)\nresponse.write(\'\\n<table>\\n\\t\\n\\t<tr>\\n\\t\\t<td><b>Signed</b></td>\\n\\t\\t<td><b>K </b></td>\\n\\t\\t<td>\', escape=False)\nresponse.write(form.custom.widget.k)\nresponse.write(\'</td>\\n\\t\\t<td><b>Unsigned</b></td>\\n\\t</tr>\\n\\t<tr>\\n\\t\\t<td>\', escape=False)\nresponse.write(left_first)\nresponse.write(\'</td>\\n\\t\\t<td>\', escape=False)\nresponse.write(form.custom.label.first_binary)\nresponse.write(\'</td>\\n\\t\\t<td>\', escape=False)\nresponse.write(form.custom.widget.first_binary)\nresponse.write(\'</td>\\n\\t\\t<td>\', escape=False)\nresponse.write(right_first)\nresponse.write(\'</td>\\n\\t</tr>\\n\\t<tr>\\n\\t\\t<td>\', escape=False)\nresponse.write(left_second)\nresponse.write(\'</td>\\n\\t\\t<td>\', escape=False)\nresponse.write(form.custom.label.second_binary)\nresponse.write(\'</td>\\n\\t\\t<td>\', escape=False)\nresponse.write(form.custom.widget.second_binary)\nresponse.write(\'</td>\\n\\t\\t<td>\', escape=False)\nresponse.write(right_second)\nresponse.write(\'</td>\\n\\t<tr>\\n\\t\\t<td>\', escape=False)\nresponse.write(left_result)\nresponse.write(\'</td>\\n\\t\\t<td>Result </td>\\n\\t\\t<td>\', escape=False)\nif unsigned_overflow==1:\n    response.write(\'1-\', escape=False)\n    response.write(mid)\nelse:\n    response.write(\'0-\', escape=False)\n    response.write(mid)\n    pass\nresponse.write(\'</td>\\n\\t\\t<td>\', escape=False)\nresponse.write(right_result)\nresponse.write(\'</td>\\n\\t</tr>\\n\\t<tr>\\n\\t\\t<td>Signed Error-\', escape=False)\nresponse.write(signed_overflow)\nresponse.write(\'</td>\\n\\t\\t<td>\', escape=False)\nresponse.write(form.custom.submit)\nresponse.write(\'</td>\\n\\t\\t<td></td>\\n\\t\\t<td>Unsigned Error-\', escape=False)\nresponse.write(unsigned_overflow)\nresponse.write(\'</td>\\n\\t</tr>\\n</table>\\n\', escape=False)\nresponse.write(form.custom.end)\nresponse.write("\\n<h1>Instructions</h1>\\n<ol>\\n\\t<li>Enter any two binary numbers in the space provided\\n\\t<ul>\\n\\t\\t<li>The app takes last \'K\' bits of the numbers given</li>\\n\\t</ul>\\n\\t</li>\\n\\t<li>The result of binary addition is also \'K\' bits with an additional carry-out bit</li>\\n\\t<li>The left column under \'Signed\' shows the 2\'s complement signed decimal numbers of the corresponding binary numbers in the middle column</li>\\n\\t<li>The right column under \'Unsigned\' shows the unsigned decimal numbers of the corresponding binary numbers in the middle column</li>\\n\\t<li>In case of signed overflow \'Signed Error\' becomes \'1\'</li>\\n\\t<li>In case of unsigned overflow \'Unsigned Error\' becomes \'1\'</li>\\n</ol>\\n<h1>Note</h1>\\n<ul>\\n\\t<li>Note that binary result remains same, whether the addition is signed or unsigned.</li>\\n\\t<li>An overflow occurs when the result cannot be represented by the selected number of bits</li>\\n</ul>\\n\\n", escape=False)\nresponse.write(\'\\n    </div>\\n   </div>\\n   <div id="footer">\\n    <p>\\n     &copy; IIIT Hyderabad. Design:\\n     <a href="http://web.iiit.ac.in/~ravi.agarwal" title="ravi.agarwal@students.iiit.ac.in">\\n      Ravi Agarwal\\n     </a>\\n     CSS available from\\n     <a href="http://www.justfreetemplates.com" title="free web templates">\\n      Just Free Templates\\n     </a>\\n    </p>\\n   </div>\\n  </div>\\n </body>\\n</html>\\n\', escape=False)'
p6
sS'snapshot'
p7
(dp8
S'exception'
p9
(dp10
S'__getslice__'
p11
S"<method-wrapper '__getslice__' of exceptions.SyntaxError object>"
p12
sS'text'
p13
S'"response.write(\'<br/>\\\\n\', escape=False)\\n"'
p14
sS'__str__'
p15
S"<method-wrapper '__str__' of exceptions.SyntaxError object>"
p16
sS'__reduce__'
p17
S'<built-in method __reduce__ of exceptions.SyntaxError object>'
p18
sS'__dict__'
p19
S'{}'
p20
sS'__sizeof__'
p21
S'<built-in method __sizeof__ of exceptions.SyntaxError object>'
p22
sS'__init__'
p23
S"<method-wrapper '__init__' of exceptions.SyntaxError object>"
p24
sS'__setattr__'
p25
S"<method-wrapper '__setattr__' of exceptions.SyntaxError object>"
p26
sS'__reduce_ex__'
p27
S'<built-in method __reduce_ex__ of exceptions.SyntaxError object>'
p28
sS'__new__'
p29
S'<built-in method __new__ of type object>'
p30
sS'__format__'
p31
S'<built-in method __format__ of exceptions.SyntaxError object>'
p32
sS'__class__'
p33
S"<type 'exceptions.SyntaxError'>"
p34
sS'filename'
p35
S"'/home/cvest.cso/public_html/LocalityAnalysis/web...tions/teach_me_binary/views/default/calc_add.html'"
p36
sS'lineno'
p37
S'54'
p38
sS'msg'
p39
S"'invalid syntax'"
p40
sS'__doc__'
p41
S"'Invalid syntax.'"
p42
sS'__getitem__'
p43
S"<method-wrapper '__getitem__' of exceptions.SyntaxError object>"
p44
sS'__setstate__'
p45
S'<built-in method __setstate__ of exceptions.SyntaxError object>'
p46
sS'__getattribute__'
p47
S"<method-wrapper '__getattribute__' of exceptions.SyntaxError object>"
p48
sS'print_file_and_line'
p49
S'None'
p50
sS'args'
p51
S'(\'invalid syntax\', (\'/home/cvest.cso/public_html/LocalityAnalysis/web...tions/teach_me_binary/views/default/calc_add.html\', 54, 8, "response.write(\'<br/>\\\\n\', escape=False)\\n"))'
p52
sS'__subclasshook__'
p53
S'<built-in method __subclasshook__ of type object>'
p54
sS'offset'
p55
S'8'
sS'__unicode__'
p56
S'<built-in method __unicode__ of exceptions.SyntaxError object>'
p57
sS'__delattr__'
p58
S"<method-wrapper '__delattr__' of exceptions.SyntaxError object>"
p59
sS'__repr__'
p60
S"<method-wrapper '__repr__' of exceptions.SyntaxError object>"
p61
sS'__hash__'
p62
S"<method-wrapper '__hash__' of exceptions.SyntaxError object>"
p63
ssS'evalue'
p64
S'invalid syntax (calc_add.html, line 54)'
p65
sS'request'
p66
(dp67
S'function'
p68
S"'calc_add'"
p69
sS'body'
p70
S"<open file '<fdopen>', mode 'w+b'>"
p71
sS'wsgi'
p72
S"<Storage {'start_response': <function <lambda> a...ING': 'gzip,deflate', 'HTTP_KEEP_ALIVE': '115'}}>"
p73
sS'extension'
p74
S"'html'"
p75
sS'vars'
p76
S"<Storage {'_formkey': '327c13d6-d008-4f94-8c58-a...'first_binary': '0001', 'second_binary': '1010'}>"
p77
sS'cid'
p78
S'None'
p79
sS'url'
p80
S'<gluon.html.XML object>'
p81
sg51
S'[]'
p82
sS'controller'
p83
S"'default'"
p84
sS'cookies'
p85
S"<SimpleCookie: SESS1fda454ed642981b513705279fb62...0-1-39-227-1ff02897-0519-4ad7-85b5-b79daf5f1dc8'>"
p86
sS'application'
p87
S"'teach_me_binary'"
p88
sS'ajax'
p89
S'False'
p90
sS'client'
p91
S"'10.1.39.227'"
p92
sS'env'
p93
S"<Storage {'content_length': '578', 'http_user_ag...te', 'query_string': '', 'wsgi_run_once': False}>"
p94
sS'raw_args'
p95
S'None'
p96
sS'get_vars'
p97
S'<Storage {}>'
p98
sS'folder'
p99
S"'/home/cvest.cso/public_html/LocalityAnalysis/web2py/applications/teach_me_binary/'"
p100
sS'now'
p101
S'datetime.datetime(2011, 1, 1, 12, 1, 5, 780129)'
p102
sS'post_vars'
p103
S"<Storage {'_formkey': '327c13d6-d008-4f94-8c58-a...'first_binary': '0001', 'second_binary': '1010'}>"
p104
ssS'frames'
p105
(lp106
(dp107
S'file'
p108
S'/home/cvest.cso/public_html/LocalityAnalysis/web2py/gluon/restricted.py'
p109
sS'dump'
p110
(dp111
S'code'
p112
S'\'response.write(\\\'<!DOCTYPE html PUBLIC "-//W3C//D...v>\\\\n  </div>\\\\n </body>\\\\n</html>\\\\n\\\', escape=False)\''
p113
sS'layer'
p114
S"'/home/cvest.cso/public_html/LocalityAnalysis/web...tions/teach_me_binary/views/default/calc_add.html'"
p115
sS'global compile2'
p116
S'<function compile2>'
p117
sS'ccode'
p118
S'undefined'
p119
ssS'lnum'
p120
I186
sS'lines'
p121
(dp122
I181
S''
sI182
S'    try:'
p123
sI183
S'        if type(code) == types.CodeType:'
p124
sI184
S'            ccode = code'
p125
sI185
S'        else:'
p126
sI186
S'            ccode = compile2(code,layer)'
p127
sI187
S''
sI188
S'        exec ccode in environment'
p128
sI189
S'    except HTTP:'
p129
sI190
S'        raise'
p130
ssS'call'
p131
S'(code=\'response.write(\\\'<!DOCTYPE html PUBLIC "-//W3C//D...v>\\\\n  </div>\\\\n </body>\\\\n</html>\\\\n\\\', escape=False)\', environment={\'A\': <class \'gluon.html.A\'>, \'Auth\': <class \'gluon.tools.Auth\'>, \'B\': <class \'gluon.html.B\'>, \'BEAUTIFY\': <class \'gluon.html.BEAUTIFY\'>, \'BODY\': <class \'gluon.html.BODY\'>, \'BR\': <class \'gluon.html.BR\'>, \'CENTER\': <class \'gluon.html.CENTER\'>, \'CLEANUP\': <class \'gluon.validators.CLEANUP\'>, \'CODE\': <class \'gluon.html.CODE\'>, \'CRYPT\': <class \'gluon.validators.CRYPT\'>, ...}, layer=\'/home/cvest.cso/public_html/LocalityAnalysis/web...tions/teach_me_binary/views/default/calc_add.html\')'
p132
sS'func'
p133
S'restricted'
p134
sa(dp135
g108
S'/home/cvest.cso/public_html/LocalityAnalysis/web2py/gluon/restricted.py'
p136
sg110
(dp137
S'builtincompile'
p138
S'<built-in function compile>'
p139
sS'code'
p140
S'\'response.write(\\\'<!DOCTYPE html PUBLIC "-//W3C//D...v>\\\\n  </div>\\\\n </body>\\\\n</html>\\\\n\\\', escape=False)\''
p141
sS'code.rstrip'
p142
S'<built-in method rstrip of str object>'
p143
sS').replace'
p144
g119
sS'layer'
p145
S"'/home/cvest.cso/public_html/LocalityAnalysis/web...tions/teach_me_binary/views/default/calc_add.html'"
p146
ssg120
I173
sg121
(dp147
I168
S''
sI169
S'def compile2(code,layer):'
p148
sI170
S'    """'
p149
sI171
S"    The +'\\n' is necessary else compile fails when code ends in a comment."
p150
sI172
S'    """'
p151
sI173
S"    return compile(code.rstrip().replace('\\r\\n','\\n')+'\\n', layer, 'exec')"
p152
sI174
S''
sI175
S"def restricted(code, environment={}, layer='Unknown'):"
p153
sI176
S'    """'
p154
sI177
S'    runs code in environment and returns the output. if an exception occurs'
p155
ssg131
S'(code=\'response.write(\\\'<!DOCTYPE html PUBLIC "-//W3C//D...v>\\\\n  </div>\\\\n </body>\\\\n</html>\\\\n\\\', escape=False)\', layer=\'/home/cvest.cso/public_html/LocalityAnalysis/web...tions/teach_me_binary/views/default/calc_add.html\')'
p156
sg133
S'compile2'
p157
sasS'pyver'
p158
S'Python 2.6.6rc1+: /usr/bin/python'
p159
sS'session'
p160
(dp161
S'_formkey[no_table_create]'
p162
S"'f43585f8-6ea8-4e51-9a7c-df7cbf8bcd00'"
p163
sS'_formkey[log_create]'
p164
S"'d4e2771e-24a4-477f-81ad-db10e026e30b'"
p165
sS'k'
S"'4'"
p166
sS'flash'
p167
S'None'
p168
sS'auth'
p169
S"<Storage {'expiration': 3600, 'user': <Storage {...011, 1, 1, 12, 1, 5, 780129), 'remember': False}>"
p170
sS'_formkey[login]'
p171
S"'637d8704-06f8-4760-8788-e47fbeb0bf19'"
p172
ssS'etype'
p173
S"<type 'exceptions.SyntaxError'>"
p174
sS'date'
p175
S'Sat Jan  1 12:01:05 2011'
p176
sS'response'
p177
(dp178
S'status'
p179
S'200'
p180
sg70
S'<cStringIO.StringO object>'
p181
sg85
S"<SimpleCookie: session_id_teach_me_binary='10-1-39-227-1ff02897-0519-4ad7-85b5-b79daf5f1dc8'>"
p182
sS'_vars'
p183
S"{'form': <gluon.sqlhtml.SQLFORM object>, 'left_first': None, 'left_result': None, 'left_second': None, 'mid': '', 'right_first': None, 'right_result': None, 'right_second': None, 'signed_overflow': None, 'unsigned_overflow': None}"
p184
sS'title'
p185
S"'teach_me_binary'"
p186
sS'session_file'
p187
S"<open file '/home/cvest.cso/public_html/Locality...ff02897-0519-4ad7-85b5-b79daf5f1dc8', mode 'rb+'>"
p188
sS'flash'
p189
S"''"
p190
sS'_custom_rollback'
p191
S'None'
p192
sS'session_id'
p193
S"'10-1-39-227-1ff02897-0519-4ad7-85b5-b79daf5f1dc8'"
p194
sS'headers'
p195
S"<Storage {'Expires': 'Sat, 01 Jan 2011 06:31:05 ...he, must-revalidate, post-check=0, pre-check=0'}>"
p196
sS'meta'
p197
S"<Storage {'keywords': 'CSO IIIT binary', 'descri...igned', 'author': 'Ravi Agarwal,IIIT Hyderabad'}>"
p198
sS'session_filename'
p199
S"'/home/cvest.cso/public_html/LocalityAnalysis/web.../10-1-39-227-1ff02897-0519-4ad7-85b5-b79daf5f1dc8'"
p200
sS'postprocessing'
p201
S'[]'
p202
sS'menu'
p203
S"[(<lazyT 'Start'>, False, <gluon.html.XML object>, [])]"
p204
sS'_view_environment'
p205
S"{'A': <class 'gluon.html.A'>, 'Auth': <class 'gluon.tools.Auth'>, 'B': <class 'gluon.html.B'>, 'BEAUTIFY': <class 'gluon.html.BEAUTIFY'>, 'BODY': <class 'gluon.html.BODY'>, 'BR': <class 'gluon.html.BR'>, 'CENTER': <class 'gluon.html.CENTER'>, 'CLEANUP': <class 'gluon.validators.CLEANUP'>, 'CODE': <class 'gluon.html.CODE'>, 'CRYPT': <class 'gluon.validators.CRYPT'>, ...}"
p206
sS'subtitle'
p207
S"<lazyT 'Isomorphic Binary Addition'>"
p208
sS'session_id_name'
p209
S"'session_id_teach_me_binary'"
p210
sS'_custom_commit'
p211
S'None'
p212
sS'_caller'
p213
S'<function <lambda>>'
p214
sS'files'
p215
S'[]'
p216
sS'view'
p217
S"'default/calc_add.html'"
p218
ssS'locals'
p219
(dp220
g3
S"'/home/cvest.cso/public_html/LocalityAnalysis/web...tions/teach_me_binary/views/default/calc_add.html'"
p221
sg5
S'\'response.write(\\\'<!DOCTYPE html PUBLIC "-//W3C//D...v>\\\\n  </div>\\\\n </body>\\\\n</html>\\\\n\\\', escape=False)\''
p222
sssS'traceback'
p223
S'Traceback (most recent call last):\n  File "/home/cvest.cso/public_html/LocalityAnalysis/web2py/gluon/restricted.py", line 186, in restricted\n    ccode = compile2(code,layer)\n  File "/home/cvest.cso/public_html/LocalityAnalysis/web2py/gluon/restricted.py", line 173, in compile2\n    return compile(code.rstrip().replace(\'\\r\\n\',\'\\n\')+\'\\n\', layer, \'exec\')\n  File "/home/cvest.cso/public_html/LocalityAnalysis/web2py/applications/teach_me_binary/views/default/calc_add.html", line 54\n    response.write(\'<br/>\\n\', escape=False)\n           ^\nSyntaxError: invalid syntax\n'
p224
s.