(dp1
S'output'
p2
S''
sS'layer'
p3
S'/home/ravi/vlab/LocalityAnalysis/web2py/applications/teach_me_binary/controllers/default.py'
p4
sS'code'
p5
S'# -*- coding: utf-8 -*- \n\n#########################################################################\n## This is a samples controller\n## - index is the default action of any application\n## - user is required for authentication and authorization\n## - download is for downloading files uploaded in the db (does streaming)\n## - call exposes all registered services (none by default)\n#########################################################################  \n\n@auth.requires_login()\ndef index():\n    """\n    example action using the internationalization operator T and flash\n    rendered by views/default/index.html or views/generic.html\n    """\n    form=form_factory(Field(\'k\',\'integer\',requires=IS_LENGTH(10,1)))\n    if form.accepts(request.vars,session):\n\t    session.k=request.vars.k\n\t    redirect(URL(request.application,\'default\',\'calc_add\'))\n    response.flash = T(\'Welcome to web2py\')\n    return dict(message=T(\'Hello World\'),form=form)\n\n@auth.requires_login()\ndef calc_add():\n\tright_first=None\n\tright_second=None\n\tright_result=None\n\tleft_first=None\n\tleft_second=None\n\tleft_result=None\n\tmid_result_bin=""\n\tunsigned_overflow=None\n\n\tif len(session.k)<1:\n\t\tsession.flash=\'Enter value of k\'\n\t\tredirect(URL(request.application,\'default\',\'index\'))\n\tlast=request.vars\n\tdb.log.k.default=int(session.k,10)\n\tdb.log.first_binary.requires=IS_LENGTH(int(session.k,10),1)\n\tdb.log.second_binary.requires=IS_LENGTH(int(session.k,10),1)\n\tdb.log.user_id.default=auth.user.id\n\tif last:\n\t\tmaintain=int(session.k)*"0"\n\t\tlast.first_binary=maintain+str(last.first_binary)\n\t\tlast.second_binary=maintain+str(last.second_binary)\n\t\tprint last.second_binary\n\t\tlast.first_binary=last.first_binary[-int(session.k):]\n\t\tlast.second_binary=last.second_binary[-int(session.k):]\n\t\tdb.log.first_binary.default=last.first_binary\n\t\tdb.log.second_binary.default=last.second_binary\n\tform=SQLFORM(db.log)\n\tif request.vars:\n\t\tfirst=re.match(\'[10]+\',request.vars.first_binary)\n\t\tsecond=re.match(\'[10]+\',request.vars.second_binary)\n\t\tif first==None or second==None:\n\t    \t\tsession.flash=\'Numbers have to be in binary\'\n\t\t\tredirect(URL(request.application,\'default\',\'calc_add\'))\n\t\tif first.start()!=0 or first.end()!=len(request.vars.first_binary) or second.start()!=0 or second.end()!=len(request.vars.second_binary):\n\t    \t\tsession.flash=\'Numbers have to be in binary\'\n\t    \t\tredirect(URL(request.application,\'default\',\'calc_add\'))\n\tif form.accepts(request.vars,session):\n\t\tright_first=int(request.vars.first_binary,2)\n\t\tright_second=int(request.vars.second_binary,2)\n\t\tright_result=right_first+right_second\n\t\tif right_result>=pow(2,int(session.k)):\n\t\t\tunsigned_overflow=1\n\n\t\tmid_result_dec=right_result\n\t\tmid_result_bin=""\n\t\twhile mid_result_dec>0:\n\t\t\tquot=mid_result_dec/2\n\t\t\trem=mid_result_dec%2\n\t\t\tmid_result_dec=quot\n\t\t\tmid_result_bin=str(rem)+mid_result_bin\n\t\tmaintain=int(session.k)*"0"\n\t\tmid_result_bin=maintain+mid_result_bin\n\t\tmid_result_bin=mid_result_bin[-int(session.k):]\n\t\t\n\t\tleft_first=right_first\n\t\tleft_second=right_second\n\n\t\tif len(request.vars.first_binary)==int(session.k) and request.vars.first_binary[0]==\'1\':\n\t\t\tleft_first=right_first-(1<<int(session.k))\n\t\tif len(request.vars.second_binary)==int(session.k) and request.vars.second_binary[0]==\'1\':\n\t\t\tleft_second=right_second-(1<<int(session.k))\n\t\tleft_result=left_first+left_right\n\t\tresponse.flash=\'successful\'\n\treturn dict(left_result=left_result,left_first=left_first,left_second=left_second,form=form,right_first=right_first, right_second=right_second,right_result=right_result,unsigned_overflow=unsigned_overflow,mid=mid_result_bin)\ndef user():\n    """\n    exposes:\n    http://..../[app]/default/user/login \n    http://..../[app]/default/user/logout\n    http://..../[app]/default/user/register\n    http://..../[app]/default/user/profile\n    http://..../[app]/default/user/retrieve_password\n    http://..../[app]/default/user/change_password\n    use @auth.requires_login()\n        @auth.requires_membership(\'group name\')\n        @auth.requires_permission(\'read\',\'table name\',record_id)\n    to decorate functions that need access control\n    """\n    return dict(form=auth())\n\n\ndef download():\n    """\n    allows downloading of uploaded files\n    http://..../[app]/default/download/[filename]\n    """\n    return response.download(request,db)\n\n\ndef call():\n    """\n    exposes services. for example:\n    http://..../[app]/default/call/jsonrpc\n    decorate with @services.jsonrpc the functions to expose\n    supports xml, json, xmlrpc, jsonrpc, amfrpc, rss, csv\n    """\n    session.forget()\n    return service()\n\n\n\nresponse._vars=response._caller(calc_add)\n'
p6
sS'snapshot'
p7
(dp8
S'exception'
p9
(dp10
S'__hash__'
p11
S"<method-wrapper '__hash__' of exceptions.NameError object>"
p12
sS'__setattr__'
p13
S"<method-wrapper '__setattr__' of exceptions.NameError object>"
p14
sS'__reduce_ex__'
p15
S'<built-in method __reduce_ex__ of exceptions.NameError object>'
p16
sS'__getslice__'
p17
S"<method-wrapper '__getslice__' of exceptions.NameError object>"
p18
sS'__getitem__'
p19
S"<method-wrapper '__getitem__' of exceptions.NameError object>"
p20
sS'__setstate__'
p21
S'<built-in method __setstate__ of exceptions.NameError object>'
p22
sS'__reduce__'
p23
S'<built-in method __reduce__ of exceptions.NameError object>'
p24
sS'__str__'
p25
S"<method-wrapper '__str__' of exceptions.NameError object>"
p26
sS'__format__'
p27
S'<built-in method __format__ of exceptions.NameError object>'
p28
sS'__getattribute__'
p29
S"<method-wrapper '__getattribute__' of exceptions.NameError object>"
p30
sS'__class__'
p31
S"<type 'exceptions.NameError'>"
p32
sS'__unicode__'
p33
S'<built-in method __unicode__ of exceptions.NameError object>'
p34
sS'__delattr__'
p35
S"<method-wrapper '__delattr__' of exceptions.NameError object>"
p36
sS'__subclasshook__'
p37
S'<built-in method __subclasshook__ of type object>'
p38
sS'__repr__'
p39
S"<method-wrapper '__repr__' of exceptions.NameError object>"
p40
sS'args'
p41
S'("global name \'left_right\' is not defined",)'
p42
sS'__dict__'
p43
S'{}'
p44
sS'__sizeof__'
p45
S'<built-in method __sizeof__ of exceptions.NameError object>'
p46
sS'__doc__'
p47
S"'Name not found globally.'"
p48
sS'__init__'
p49
S"<method-wrapper '__init__' of exceptions.NameError object>"
p50
sS'__new__'
p51
S'<built-in method __new__ of type object>'
p52
ssS'evalue'
p53
S"global name 'left_right' is not defined"
p54
sS'request'
p55
(dp56
S'function'
p57
S"'calc_add'"
p58
sS'body'
p59
S"<open file '<fdopen>', mode 'w+b'>"
p60
sS'wsgi'
p61
S"<Storage {'start_response': <function <lambda> a...ING': 'gzip,deflate', 'HTTP_KEEP_ALIVE': '115'}}>"
p62
sS'extension'
p63
S"'html'"
p64
sS'vars'
p65
S"<Storage {'_formkey': 'a8d169bc-68ef-4d66-b586-b...y': '0010000000', 'second_binary': '0000000001'}>"
p66
sS'cid'
p67
S'None'
p68
sS'url'
p69
S'<gluon.html.XML object>'
p70
sg41
S'[]'
p71
sS'controller'
p72
S"'default'"
p73
sS'cookies'
p74
S"<SimpleCookie: __utma='96992031.1506345600.12877...'127-0-0-1-b0368528-5186-421e-97f9-2ff4fcba69dc'>"
p75
sS'application'
p76
S"'teach_me_binary'"
p77
sS'ajax'
p78
S'False'
p79
sS'client'
p80
S"'127.0.0.1'"
p81
sS'env'
p82
S"<Storage {'content_length': '586', 'http_user_ag...te', 'query_string': '', 'wsgi_run_once': False}>"
p83
sS'raw_args'
p84
S'None'
p85
sS'get_vars'
p86
S'<Storage {}>'
p87
sS'folder'
p88
S"'/home/ravi/vlab/LocalityAnalysis/web2py/applications/teach_me_binary/'"
p89
sS'now'
p90
S'datetime.datetime(2010, 12, 30, 17, 56, 25, 999618)'
p91
sS'post_vars'
p92
S"<Storage {'_formkey': 'a8d169bc-68ef-4d66-b586-b...inary': '10000000', 'second_binary': '00000001'}>"
p93
ssS'frames'
p94
(lp95
(dp96
S'file'
p97
S'/home/ravi/vlab/LocalityAnalysis/web2py/gluon/restricted.py'
p98
sS'dump'
p99
(dp100
S'environment'
p101
S"{'A': <class 'gluon.html.A'>, 'Auth': <class 'gluon.tools.Auth'>, 'B': <class 'gluon.html.B'>, 'BEAUTIFY': <class 'gluon.html.BEAUTIFY'>, 'BODY': <class 'gluon.html.BODY'>, 'BR': <class 'gluon.html.BR'>, 'CENTER': <class 'gluon.html.CENTER'>, 'CLEANUP': <class 'gluon.validators.CLEANUP'>, 'CODE': <class 'gluon.html.CODE'>, 'CRYPT': <class 'gluon.validators.CRYPT'>, ...}"
p102
sS'ccode'
p103
S'<code object <module> at 0x9454e30, file "/home/...teach_me_binary/controllers/default.py", line 11>'
p104
ssS'lnum'
p105
I188
sS'lines'
p106
(dp107
I192
S'        # XXX Show exception in Wing IDE if running in debugger'
p108
sI183
S'        if type(code) == types.CodeType:'
p109
sI184
S'            ccode = code'
p110
sI185
S'        else:'
p111
sI186
S'            ccode = compile2(code,layer)'
p112
sI187
S''
sI188
S'        exec ccode in environment'
p113
sI189
S'    except HTTP:'
p114
sI190
S'        raise'
p115
sI191
S'    except Exception:'
p116
ssS'call'
p117
S"(code='# -*- coding: utf-8 -*- \\n\\n######################...e()\\n\\n\\n\\nresponse._vars=response._caller(calc_add)\\n', environment={'A': <class 'gluon.html.A'>, 'Auth': <class 'gluon.tools.Auth'>, 'B': <class 'gluon.html.B'>, 'BEAUTIFY': <class 'gluon.html.BEAUTIFY'>, 'BODY': <class 'gluon.html.BODY'>, 'BR': <class 'gluon.html.BR'>, 'CENTER': <class 'gluon.html.CENTER'>, 'CLEANUP': <class 'gluon.validators.CLEANUP'>, 'CODE': <class 'gluon.html.CODE'>, 'CRYPT': <class 'gluon.validators.CRYPT'>, ...}, layer='/home/ravi/vlab/LocalityAnalysis/web2py/applications/teach_me_binary/controllers/default.py')"
p118
sS'func'
p119
S'restricted'
p120
sa(dp121
g97
S'/home/ravi/vlab/LocalityAnalysis/web2py/applications/teach_me_binary/controllers/default.py'
p122
sg99
(dp123
sg105
I127
sg106
(dp124
I116
S'    """'
p125
sI117
S'    exposes services. for example:'
p126
sI118
S'    http://..../[app]/default/call/jsonrpc'
p127
sI119
S'    decorate with @services.jsonrpc the functions to expose'
p128
sI120
S'    supports xml, json, xmlrpc, jsonrpc, amfrpc, rss, csv'
p129
sI121
S'    """'
p130
sI122
S'    session.forget()'
p131
sI123
S'    return service()'
p132
sI124
S''
sI125
S''
ssg117
S'()'
p133
sg119
S'<module>'
p134
sa(dp135
g97
S'/home/ravi/vlab/LocalityAnalysis/web2py/gluon/globals.py'
p136
sg99
(dp137
S'self'
p138
S'undefined'
p139
sS'f'
S'<function calc_add>'
p140
ssg105
I96
sg106
(dp141
I96
S'        self._caller = lambda f: f()'
p142
sI97
S'        self._view_environment = None'
p143
sI98
S'        self._custom_commit = None'
p144
sI99
S'        self._custom_rollback = None'
p145
sI100
S''
sI91
S"        self.flash = ''           # used by the default view layout"
p146
sI92
S'        self.meta = Storage()     # used by web2py_ajax.html'
p147
sI93
S'        self.menu = []            # used by the default view layout'
p148
sI94
S'        self.files = []           # used by web2py_ajax.html'
p149
sI95
S'        self._vars = None'
p150
ssg117
S'(f=<function calc_add>)'
p151
sg119
S'<lambda>'
p152
sa(dp153
g97
S'/home/ravi/vlab/LocalityAnalysis/web2py/gluon/tools.py'
p154
sg99
(dp155
S'action'
p156
S'<function calc_add>'
p157
sS'a'
S'()'
p158
sS'b'
g44
ssg105
I2264
sg106
(dp159
I2259
S'                               vars=request.get_vars)'
p160
sI2260
S'                    return call_or_redirect(self.settings.on_failed_authentication,'
p161
sI2261
S'                                            self.settings.login_url + \\'
p162
sI2262
S"                                                '?_next='+urllib.quote(next)"
p163
sI2263
S'                                            )'
p164
sI2264
S'                return action(*a, **b)'
p165
sI2265
S'            f.__doc__ = action.__doc__'
p166
sI2266
S'            f.__name__ = action.__name__'
p167
sI2267
S'            f.__dict__.update(action.__dict__)'
p168
sI2268
S'            return f'
p169
ssg117
S'(*a=(), **b={})'
p170
sg119
S'f'
sa(dp171
g97
S'/home/ravi/vlab/LocalityAnalysis/web2py/applications/teach_me_binary/controllers/default.py'
p172
sg99
(dp173
S'left_result'
p174
S'None'
p175
sS'left_right'
p176
g139
sS'left_first'
p177
S'128'
p178
ssg105
I87
sg106
(dp179
I82
S''
sI83
S"\t\tif len(request.vars.first_binary)==int(session.k) and request.vars.first_binary[0]=='1':"
p180
sI84
S'\t\t\tleft_first=right_first-(1<<int(session.k))'
p181
sI85
S"\t\tif len(request.vars.second_binary)==int(session.k) and request.vars.second_binary[0]=='1':"
p182
sI86
S'\t\t\tleft_second=right_second-(1<<int(session.k))'
p183
sI87
S'\t\tleft_result=left_first+left_right'
p184
sI88
S"\t\tresponse.flash='successful'"
p185
sI89
S'\treturn dict(left_result=left_result,left_first=left_first,left_second=left_second,form=form,right_first=right_first, right_second=right_second,right_result=right_result,unsigned_overflow=unsigned_overflow,mid=mid_result_bin)'
p186
sI90
S'def user():'
p187
sI91
S'    """'
p188
ssg117
S'()'
p189
sg119
S'calc_add'
p190
sasS'pyver'
p191
S'Python 2.6.5: /usr/bin/python2.6'
p192
sS'session'
p193
(dp194
S'_formkey[no_table_create]'
p195
S"'f64777fe-7b5b-4786-9a2c-64092a85675d'"
p196
sS'_formkey[log_create]'
p197
S"'de3aa931-4711-4607-8931-ebefa6ec2d3f'"
p198
sS'k'
S"'10'"
p199
sS'flash'
p200
S'None'
p201
sS'auth'
p202
S"<Storage {'expiration': 3600, 'user': <Storage {... 12, 30, 17, 56, 25, 999618), 'remember': False}>"
p203
sS'second'
p204
S"'0010'"
p205
sS'_formkey[login]'
p206
S"'9516363b-3a1c-49dc-a5cb-427855ada374'"
p207
sS'first'
p208
S"'1001'"
p209
ssS'etype'
p210
S"<type 'exceptions.NameError'>"
p211
sS'date'
p212
S'Thu Dec 30 17:56:26 2010'
p213
sS'response'
p214
(dp215
S'status'
p216
S'200'
p217
sg59
S'<cStringIO.StringO object>'
p218
sg74
S"<SimpleCookie: session_id_teach_me_binary='127-0-0-1-06eccd88-f904-4709-9717-55cadd448626'>"
p219
sS'_vars'
p220
S'None'
p221
sS'title'
p222
S"'teach_me_binary'"
p223
sS'session_file'
p224
S"<open file '/home/ravi/vlab/LocalityAnalysis/web...6eccd88-f904-4709-9717-55cadd448626', mode 'rb+'>"
p225
sS'flash'
p226
S"''"
p227
sS'_custom_rollback'
p228
S'None'
p229
sS'session_id'
p230
S"'127-0-0-1-06eccd88-f904-4709-9717-55cadd448626'"
p231
sS'headers'
p232
S"<Storage {'Expires': 'Thu, 30 Dec 2010 12:26:26 ...he, must-revalidate, post-check=0, pre-check=0'}>"
p233
sS'meta'
p234
S"<Storage {'keywords': 'bla bla bla', 'description': 'describe your app', 'author': 'you'}>"
p235
sS'session_filename'
p236
S"'/home/ravi/vlab/LocalityAnalysis/web2py/applicat...ns/127-0-0-1-06eccd88-f904-4709-9717-55cadd448626'"
p237
sS'postprocessing'
p238
S'[]'
p239
sS'menu'
p240
S"[(<lazyT 'Index'>, False, <gluon.html.XML object>, []), (<lazyT 'Edit'>, False, <gluon.html.XML object>, [(<lazyT 'Controller'>, False, <gluon.html.XML object>), (<lazyT 'View'>, False, <gluon.html.XML object>), (<lazyT 'Layout'>, False, <gluon.html.XML object>), (<lazyT 'Stylesheet'>, False, <gluon.html.XML object>), (<lazyT 'DB Model'>, False, <gluon.html.XML object>), (<lazyT 'Menu Model'>, False, <gluon.html.XML object>), (<lazyT 'Database'>, False, <gluon.html.XML object>)])]"
p241
sS'_view_environment'
p242
S"{'A': <class 'gluon.html.A'>, 'Auth': <class 'gluon.tools.Auth'>, 'B': <class 'gluon.html.B'>, 'BEAUTIFY': <class 'gluon.html.BEAUTIFY'>, 'BODY': <class 'gluon.html.BODY'>, 'BR': <class 'gluon.html.BR'>, 'CENTER': <class 'gluon.html.CENTER'>, 'CLEANUP': <class 'gluon.validators.CLEANUP'>, 'CODE': <class 'gluon.html.CODE'>, 'CRYPT': <class 'gluon.validators.CRYPT'>, ...}"
p243
sS'subtitle'
p244
S"<lazyT 'customize me!'>"
p245
sS'session_id_name'
p246
S"'session_id_teach_me_binary'"
p247
sS'_custom_commit'
p248
S'None'
p249
sS'_caller'
p250
S'<function <lambda>>'
p251
sS'files'
p252
S'[]'
p253
sS'view'
p254
S"'default/calc_add.html'"
p255
ssS'locals'
p256
(dp257
S'last'
p258
S"<Storage {'_formkey': 'a8d169bc-68ef-4d66-b586-b...y': '0010000000', 'second_binary': '0000000001'}>"
p259
sS'right_result'
p260
S'129'
p261
sS'form'
p262
S'<gluon.sqlhtml.SQLFORM object>'
p263
sS'quot'
p264
S'0'
sS'right_second'
p265
S'1'
sS'left_first'
p266
S'128'
p267
sS'maintain'
p268
S"'0000000000'"
p269
sS'second'
p270
S'<_sre.SRE_Match object>'
p271
sS'unsigned_overflow'
p272
S'None'
p273
sS'mid_result_dec'
p274
S'0'
sS'mid_result_bin'
p275
S"'0010000001'"
p276
sS'rem'
p277
S'1'
sS'left_second'
p278
S'1'
sS'left_result'
p279
S'None'
p280
sS'right_first'
p281
S'128'
p282
sS'first'
p283
S'<_sre.SRE_Match object>'
p284
sssS'traceback'
p285
S'Traceback (most recent call last):\n  File "/home/ravi/vlab/LocalityAnalysis/web2py/gluon/restricted.py", line 188, in restricted\n    exec ccode in environment\n  File "/home/ravi/vlab/LocalityAnalysis/web2py/applications/teach_me_binary/controllers/default.py", line 127, in <module>\n  File "/home/ravi/vlab/LocalityAnalysis/web2py/gluon/globals.py", line 96, in <lambda>\n    self._caller = lambda f: f()\n  File "/home/ravi/vlab/LocalityAnalysis/web2py/gluon/tools.py", line 2264, in f\n    return action(*a, **b)\n  File "/home/ravi/vlab/LocalityAnalysis/web2py/applications/teach_me_binary/controllers/default.py", line 87, in calc_add\n    left_result=left_first+left_right\nNameError: global name \'left_right\' is not defined\n'
p286
s.