(dp1
S'i1_associativity'
p2
S'INTEGER'
p3
sS'd1_size'
p4
S'INTEGER'
p5
sS'l2_associativity'
p6
S'INTEGER'
p7
sS'l2_line_size'
p8
S'INTEGER'
p9
sS'n'
S'INTEGER'
p10
sS'i1_size'
p11
S'INTEGER'
p12
sS'if_error'
p13
S'CHAR(1)'
p14
sS'B'
S'INTEGER'
p15
sS'l2_size'
p16
S'INTEGER'
p17
sS'i1_line_size'
p18
S'INTEGER'
p19
sS'd1_line_size'
p20
S'INTEGER'
p21
sS'output'
p22
S'CHAR(512)'
p23
sS'd1_associativity'
p24
S'INTEGER'
p25
sS'id'
p26
S'INTEGER PRIMARY KEY AUTOINCREMENT'
p27
s.