(dp1
S'i1_associativity'
p2
S'INTEGER'
p3
sS'd1_size'
p4
S'INTEGER'
p5
sS'l2_associativity'
p6
S'INTEGER'
p7
sS'l2_line_size'
p8
S'INTEGER'
p9
sS'pid'
p10
S'INTEGER REFERENCES programs(id) ON DELETE CASCADE'
p11
sS'l2_size'
p12
S'INTEGER'
p13
sS'i1_size'
p14
S'INTEGER'
p15
sS'i1_line_size'
p16
S'INTEGER'
p17
sS'd1_line_size'
p18
S'INTEGER'
p19
sS'd1_associativity'
p20
S'INTEGER'
p21
sS'id'
p22
S'INTEGER PRIMARY KEY AUTOINCREMENT'
p23
s.